
Final_Project_Code.elf:     file format elf32-littlenios2
Final_Project_Code.elf
architecture: nios2:r1, flags 0x00000112:
EXEC_P, HAS_SYMS, D_PAGED
start address 0x0000022c

Program Header:
    LOAD off    0x00001000 vaddr 0x00000000 paddr 0x00000000 align 2**12
         filesz 0x00000020 memsz 0x00000020 flags r-x
    LOAD off    0x00001020 vaddr 0x00000020 paddr 0x00000020 align 2**12
         filesz 0x00012ea0 memsz 0x00012ea0 flags r-x
    LOAD off    0x00013ec0 vaddr 0x00012ec0 paddr 0x00014a1c align 2**12
         filesz 0x00001b5c memsz 0x00001b5c flags rw-
    LOAD off    0x00016578 vaddr 0x00016578 paddr 0x00016578 align 2**12
         filesz 0x00000000 memsz 0x0000017c flags rw-

Sections:
Idx Name          Size      VMA       LMA       File off  Algn
  0 .entry        00000020  00000000  00000000  00001000  2**5
                  CONTENTS, ALLOC, LOAD, READONLY, CODE
  1 .exceptions   0000020c  00000020  00000020  00001020  2**2
                  CONTENTS, ALLOC, LOAD, READONLY, CODE
  2 .text         00012250  0000022c  0000022c  0000122c  2**2
                  CONTENTS, ALLOC, LOAD, READONLY, CODE
  3 .rodata       00000a44  0001247c  0001247c  0001347c  2**2
                  CONTENTS, ALLOC, LOAD, READONLY, DATA
  4 .rwdata       00001b5c  00012ec0  00014a1c  00013ec0  2**2
                  CONTENTS, ALLOC, LOAD, DATA, SMALL_DATA
  5 .bss          0000017c  00016578  00016578  00016578  2**2
                  ALLOC, SMALL_DATA
  6 .onchip_memory2_0 00000000  000166f4  000166f4  00015a1c  2**0
                  CONTENTS
  7 .comment      00000023  00000000  00000000  00015a1c  2**0
                  CONTENTS, READONLY
  8 .debug_aranges 00000dd0  00000000  00000000  00015a40  2**3
                  CONTENTS, READONLY, DEBUGGING
  9 .debug_info   00025341  00000000  00000000  00016810  2**0
                  CONTENTS, READONLY, DEBUGGING
 10 .debug_abbrev 000096d1  00000000  00000000  0003bb51  2**0
                  CONTENTS, READONLY, DEBUGGING
 11 .debug_line   0000b861  00000000  00000000  00045222  2**0
                  CONTENTS, READONLY, DEBUGGING
 12 .debug_frame  0000270c  00000000  00000000  00050a84  2**2
                  CONTENTS, READONLY, DEBUGGING
 13 .debug_str    00003a57  00000000  00000000  00053190  2**0
                  CONTENTS, READONLY, DEBUGGING
 14 .debug_loc    00016f01  00000000  00000000  00056be7  2**0
                  CONTENTS, READONLY, DEBUGGING
 15 .debug_alt_sim_info 00000040  00000000  00000000  0006dae8  2**2
                  CONTENTS, READONLY, DEBUGGING
 16 .debug_ranges 000013c0  00000000  00000000  0006db28  2**3
                  CONTENTS, READONLY, DEBUGGING
 17 .thread_model 00000003  00000000  00000000  0007269b  2**0
                  CONTENTS, READONLY
 18 .cpu          0000000c  00000000  00000000  0007269e  2**0
                  CONTENTS, READONLY
 19 .qsys         00000001  00000000  00000000  000726aa  2**0
                  CONTENTS, READONLY
 20 .simulation_enabled 00000001  00000000  00000000  000726ab  2**0
                  CONTENTS, READONLY
 21 .sysid_hash   00000004  00000000  00000000  000726ac  2**0
                  CONTENTS, READONLY
 22 .sysid_base   00000004  00000000  00000000  000726b0  2**0
                  CONTENTS, READONLY
 23 .sysid_time   00000004  00000000  00000000  000726b4  2**0
                  CONTENTS, READONLY
 24 .stderr_dev   0000000b  00000000  00000000  000726b8  2**0
                  CONTENTS, READONLY
 25 .stdin_dev    0000000b  00000000  00000000  000726c3  2**0
                  CONTENTS, READONLY
 26 .stdout_dev   0000000b  00000000  00000000  000726ce  2**0
                  CONTENTS, READONLY
 27 .sopc_system_name 0000000b  00000000  00000000  000726d9  2**0
                  CONTENTS, READONLY
 28 .quartus_project_dir 0000003b  00000000  00000000  000726e4  2**0
                  CONTENTS, READONLY
 29 .jdi          000056ce  00000000  00000000  0007271f  2**0
                  CONTENTS, READONLY
 30 .sopcinfo     00083150  00000000  00000000  00077ded  2**0
                  CONTENTS, READONLY
SYMBOL TABLE:
00000000 l    d  .entry	00000000 .entry
00000020 l    d  .exceptions	00000000 .exceptions
0000022c l    d  .text	00000000 .text
0001247c l    d  .rodata	00000000 .rodata
00012ec0 l    d  .rwdata	00000000 .rwdata
00016578 l    d  .bss	00000000 .bss
000166f4 l    d  .onchip_memory2_0	00000000 .onchip_memory2_0
00000000 l    d  .comment	00000000 .comment
00000000 l    d  .debug_aranges	00000000 .debug_aranges
00000000 l    d  .debug_info	00000000 .debug_info
00000000 l    d  .debug_abbrev	00000000 .debug_abbrev
00000000 l    d  .debug_line	00000000 .debug_line
00000000 l    d  .debug_frame	00000000 .debug_frame
00000000 l    d  .debug_str	00000000 .debug_str
00000000 l    d  .debug_loc	00000000 .debug_loc
00000000 l    d  .debug_alt_sim_info	00000000 .debug_alt_sim_info
00000000 l    d  .debug_ranges	00000000 .debug_ranges
00000000 l    df *ABS*	00000000 ../Final_Project_Code_bsp//obj/HAL/src/crt0.o
00000264 l       .text	00000000 alt_after_alt_main
00000000 l    df *ABS*	00000000 alt_irq_handler.c
00000000 l    df *ABS*	00000000 alt_instruction_exception_entry.c
00000000 l    df *ABS*	00000000 io_handler.c
00000000 l    df *ABS*	00000000 keyboard_functions.c
00016578 l     O .bss	00000002 ctl_reg
0001657a l     O .bss	00000002 no_device
00000000 l    df *ABS*	00000000 main.c
00000000 l    df *ABS*	00000000 play_game.c
00000000 l    df *ABS*	00000000 usb.c
00000000 l    df *ABS*	00000000 lib2-divmod.c
00003088 l     F .text	0000006c udivmodsi4
00000000 l    df *ABS*	00000000 malloc.c
00000000 l    df *ABS*	00000000 mallocr.c
00000000 l    df *ABS*	00000000 printf.c
00000000 l    df *ABS*	00000000 puts.c
00000000 l    df *ABS*	00000000 rand.c
00000000 l    df *ABS*	00000000 sbrkr.c
00000000 l    df *ABS*	00000000 strlen.c
00000000 l    df *ABS*	00000000 vfprintf.c
00012c06 l     O .rodata	00000010 zeroes.4181
00012c16 l     O .rodata	00000010 blanks.4180
00000000 l    df *ABS*	00000000 wsetup.c
00000000 l    df *ABS*	00000000 dtoa.c
00005e70 l     F .text	00000228 quorem
00000000 l    df *ABS*	00000000 fflush.c
00000000 l    df *ABS*	00000000 findfp.c
00007a18 l     F .text	00000008 __fp_lock
00007a20 l     F .text	00000008 __fp_unlock
00007a34 l     F .text	000001a0 __sinit.part.1
00000000 l    df *ABS*	00000000 mallocr.c
00000000 l    df *ABS*	00000000 fvwrite.c
00000000 l    df *ABS*	00000000 fwalk.c
00000000 l    df *ABS*	00000000 impure.c
00013338 l     O .rwdata	00000424 impure_data
00000000 l    df *ABS*	00000000 int_errno.c
00000000 l    df *ABS*	00000000 locale.c
0001377c l     O .rwdata	00000020 lc_ctype_charset
0001375c l     O .rwdata	00000020 lc_message_charset
0001379c l     O .rwdata	00000038 lconv
00000000 l    df *ABS*	00000000 makebuf.c
00000000 l    df *ABS*	00000000 memchr.c
00000000 l    df *ABS*	00000000 memcpy.c
00000000 l    df *ABS*	00000000 memmove.c
00000000 l    df *ABS*	00000000 memset.c
00000000 l    df *ABS*	00000000 mprec.c
00012c48 l     O .rodata	0000000c p05.2678
00000000 l    df *ABS*	00000000 mallocr.c
00000000 l    df *ABS*	00000000 s_fpclassify.c
00000000 l    df *ABS*	00000000 stdio.c
00000000 l    df *ABS*	00000000 strcmp.c
00000000 l    df *ABS*	00000000 vfprintf.c
0000a768 l     F .text	000000fc __sprint_r.part.0
00012d7c l     O .rodata	00000010 blanks.4125
00012d6c l     O .rodata	00000010 zeroes.4126
00000000 l    df *ABS*	00000000 writer.c
00000000 l    df *ABS*	00000000 closer.c
00000000 l    df *ABS*	00000000 mallocr.c
00000000 l    df *ABS*	00000000 fclose.c
00000000 l    df *ABS*	00000000 fputwc.c
00000000 l    df *ABS*	00000000 fstatr.c
00000000 l    df *ABS*	00000000 isattyr.c
00000000 l    df *ABS*	00000000 lseekr.c
00000000 l    df *ABS*	00000000 readr.c
00000000 l    df *ABS*	00000000 wbuf.c
00000000 l    df *ABS*	00000000 wcrtomb.c
00000000 l    df *ABS*	00000000 wctomb_r.c
00000000 l    df *ABS*	00000000 libgcc2.c
00000000 l    df *ABS*	00000000 libgcc2.c
00000000 l    df *ABS*	00000000 libgcc2.c
00000000 l    df *ABS*	00000000 lib2-mul.c
00000000 l    df *ABS*	00000000 adddf3.c
00000000 l    df *ABS*	00000000 divdf3.c
00000000 l    df *ABS*	00000000 eqdf2.c
00000000 l    df *ABS*	00000000 gedf2.c
00000000 l    df *ABS*	00000000 ledf2.c
00000000 l    df *ABS*	00000000 muldf3.c
00000000 l    df *ABS*	00000000 subdf3.c
00000000 l    df *ABS*	00000000 fixdfsi.c
00000000 l    df *ABS*	00000000 floatsidf.c
00000000 l    df *ABS*	00000000 floatunsidf.c
00000000 l    df *ABS*	00000000 libgcc2.c
00000000 l    df *ABS*	00000000 libgcc2.c
00000000 l    df *ABS*	00000000 alt_close.c
0000fb9c l     F .text	00000050 alt_get_errno
00000000 l    df *ABS*	00000000 alt_dev.c
0000fcc4 l     F .text	0000002c alt_dev_null_write
00000000 l    df *ABS*	00000000 alt_errno.c
00000000 l    df *ABS*	00000000 alt_fstat.c
0000fcf0 l     F .text	00000050 alt_get_errno
00000000 l    df *ABS*	00000000 alt_isatty.c
0000fdf8 l     F .text	00000050 alt_get_errno
00000000 l    df *ABS*	00000000 alt_load.c
0000fef4 l     F .text	00000064 alt_load_section
00000000 l    df *ABS*	00000000 alt_lseek.c
0000ffd8 l     F .text	00000050 alt_get_errno
00000000 l    df *ABS*	00000000 alt_main.c
00000000 l    df *ABS*	00000000 alt_malloc_lock.c
00000000 l    df *ABS*	00000000 alt_read.c
000101bc l     F .text	00000050 alt_get_errno
00000000 l    df *ABS*	00000000 alt_release_fd.c
00000000 l    df *ABS*	00000000 alt_sbrk.c
00014a0c l     O .rwdata	00000004 heap_end
00000000 l    df *ABS*	00000000 alt_usleep.c
00000000 l    df *ABS*	00000000 alt_write.c
00010470 l     F .text	00000050 alt_get_errno
00000000 l    df *ABS*	00000000 alt_sys_init.c
000105c0 l     F .text	00000038 alt_dev_reg
0001397c l     O .rwdata	00001060 jtag_uart_0
00000000 l    df *ABS*	00000000 altera_avalon_jtag_uart_fd.c
00000000 l    df *ABS*	00000000 altera_avalon_jtag_uart_init.c
0001089c l     F .text	00000204 altera_avalon_jtag_uart_irq
00010aa0 l     F .text	000000a8 altera_avalon_jtag_uart_timeout
00000000 l    df *ABS*	00000000 altera_avalon_jtag_uart_ioctl.c
00000000 l    df *ABS*	00000000 altera_avalon_jtag_uart_read.c
00000000 l    df *ABS*	00000000 altera_avalon_jtag_uart_write.c
00000000 l    df *ABS*	00000000 alt_alarm_start.c
00000000 l    df *ABS*	00000000 alt_busy_sleep.c
00000000 l    df *ABS*	00000000 alt_dcache_flush_all.c
00000000 l    df *ABS*	00000000 alt_dev_llist_insert.c
00011374 l     F .text	00000050 alt_get_errno
00000000 l    df *ABS*	00000000 alt_do_ctors.c
00000000 l    df *ABS*	00000000 alt_do_dtors.c
00000000 l    df *ABS*	00000000 alt_icache_flush_all.c
00000000 l    df *ABS*	00000000 alt_iic.c
00000000 l    df *ABS*	00000000 alt_iic_isr_register.c
00000000 l    df *ABS*	00000000 alt_io_redirect.c
0001180c l     F .text	000000e0 alt_open_fd
00000000 l    df *ABS*	00000000 alt_irq_vars.c
00000000 l    df *ABS*	00000000 alt_open.c
00011964 l     F .text	00000050 alt_get_errno
000119b4 l     F .text	000000f4 alt_file_locked
00000000 l    df *ABS*	00000000 alt_tick.c
00000000 l    df *ABS*	00000000 altera_nios2_gen2_irq.c
00000000 l    df *ABS*	00000000 alt_find_dev.c
00000000 l    df *ABS*	00000000 alt_find_file.c
00000000 l    df *ABS*	00000000 alt_get_fd.c
00000000 l    df *ABS*	00000000 atexit.c
00000000 l    df *ABS*	00000000 exit.c
00000000 l    df *ABS*	00000000 memcmp.c
00000000 l    df *ABS*	00000000 __atexit.c
00000000 l    df *ABS*	00000000 __call_atexit.c
00000000 l    df *ABS*	00000000 alt_exit.c
000165c8 g     O .bss	00000004 alt_instruction_exception_handler
00009dfc g     F .text	00000074 _mprec_log10
00009ee8 g     F .text	0000008c __any_on
0000c194 g     F .text	00000054 _isatty_r
00012c54 g     O .rodata	00000028 __mprec_tinytens
00010104 g     F .text	00000078 alt_main
000039ec g     F .text	000000b8 _puts_r
000165f4 g     O .bss	00000100 alt_irq
0000c1e8 g     F .text	0000005c _lseek_r
00014a1c g       *ABS*	00000000 __flash_rwdata_start
0000e5bc g     F .text	00000084 .hidden __eqdf2
000166f4 g       *ABS*	00000000 __alt_heap_start
000039b0 g     F .text	0000003c printf
0000c410 g     F .text	0000009c _wcrtomb_r
00016588 g     O .bss	00000002 usb_ctl_val
0000a660 g     F .text	0000005c __sseek
00007d7c g     F .text	00000010 __sinit
00016580 g     O .bss	00000004 keycode
0000c2a0 g     F .text	00000154 __swbuf_r
000087f4 g     F .text	0000007c _setlocale_r
00007bd4 g     F .text	00000078 __sfmoreglue
0001019c g     F .text	00000020 __malloc_unlock
00002f8c g     F .text	00000080 UsbGetRetryCnt
00008cac g     F .text	0000015c memmove
00000268 g     F .text	00000060 IO_init
00007d64 g     F .text	00000018 _cleanup
00008f2c g     F .text	000000a8 _Balloc
0000e640 g     F .text	000000e0 .hidden __gtdf2
00011da4 g     F .text	00000020 altera_nios2_gen2_irq_init
00000000  w      *UND*	00000000 __errno
00000000 g     F .entry	0000000c __reset
00000020 g       *ABS*	00000000 __flash_exceptions_start
0000c13c g     F .text	00000058 _fstat_r
000165a0 g     O .bss	00000004 errno
0000a5dc g     F .text	00000008 __seofread
00000394 g     F .text	0000030c get_keycode
000165b4 g     O .bss	00000004 alt_argv
0001c9dc g       *ABS*	00000000 _gp
00010440 g     F .text	00000030 usleep
00001380 g     F .text	000000dc delete_enemy
000137fc g     O .rwdata	00000180 alt_fd_list
00011dc4 g     F .text	00000090 alt_find_dev
00008b74 g     F .text	00000138 memcpy
00001c2c g     F .text	000000c4 fire_projectile
000017f0 g     F .text	0000008c render_shadow
00007a28 g     F .text	0000000c _cleanup_r
0000f9c4 g     F .text	000000d0 .hidden __floatsidf
000118ec g     F .text	00000078 alt_io_redirect
0001658a g     O .bss	00000001 data_size
0000e720 g     F .text	000000e0 .hidden __ltdf2
0001247c g       *ABS*	00000000 __DTOR_END__
00003aa4 g     F .text	00000014 puts
0001203c g     F .text	0000009c alt_exception_cause_generated_bad_addr
00001584 g     F .text	000000b0 render_enemy
0000a514 g     F .text	00000074 __fpclassifyd
00009d58 g     F .text	000000a4 __ratio
0000bca0 g     F .text	00000024 __vfiprintf_internal
00010c9c g     F .text	0000020c altera_avalon_jtag_uart_read
000031b4 g     F .text	00000014 malloc
00003984 g     F .text	0000002c _printf_r
00000000 g       *ABS*	00000000 __alt_mem_onchip_memory2_0
000031a4 g     F .text	00000008 .hidden __udivsi3
0000fe48 g     F .text	000000ac isatty
00012ca4 g     O .rodata	000000c8 __mprec_tens
00008870 g     F .text	0000000c __locale_charset
00001534 g     F .text	00000050 render_enemies
0001659c g     O .bss	00000004 __malloc_top_pad
0000262c g     F .text	00000264 UsbGetConfigDesc2
000149ec g     O .rwdata	00000004 __mb_cur_max
000088a0 g     F .text	0000000c _localeconv_r
00012ec0 g     O .rwdata	00000070 sizes
00009354 g     F .text	0000003c __i2b
000081e0 g     F .text	000004a4 __sfvwrite_r
0001658c g     O .bss	00000002 intStat
00003b34 g     F .text	00000054 _sbrk_r
0000c244 g     F .text	0000005c _read_r
00014a04 g     O .rwdata	00000004 alt_max_fd
0000be4c g     F .text	00000100 _fclose_r
000079e8 g     F .text	00000030 fflush
00016598 g     O .bss	00000004 __malloc_max_sbrked_mem
000012c0 g     F .text	000000c0 make_enemy
00001750 g     F .text	000000a0 render_shadows
00001e28 g     F .text	0000011c move_enemy
0000d3a0 g     F .text	0000089c .hidden __adddf3
00009b00 g     F .text	0000011c __b2d
0000cd5c g     F .text	0000061c .hidden __umoddi3
00010028 g     F .text	000000dc lseek
000149e4 g     O .rwdata	00000004 _global_impure_ptr
00009f74 g     F .text	000005a0 _realloc_r
000166f4 g       *ABS*	00000000 __bss_end
0001171c g     F .text	000000f0 alt_iic_isr_register
00011ca0 g     F .text	00000104 alt_tick
0000c71c g     F .text	00000640 .hidden __udivdi3
0000bf60 g     F .text	00000184 _fputwc_r
00012c7c g     O .rodata	00000028 __mprec_bigtens
00009138 g     F .text	00000104 __s2b
0000fa94 g     F .text	000000a4 .hidden __floatunsidf
000098a8 g     F .text	00000060 __mcmp
0000208c g     F .text	000000fc UsbSetAddress
00007d9c g     F .text	00000018 __fp_lock_all
000116d0 g     F .text	0000004c alt_ic_irq_enabled
00011c08 g     F .text	00000098 alt_alarm_stop
000165bc g     O .bss	00000004 alt_irq_active
000000fc g     F .exceptions	000000d0 alt_irq_handler
000137d4 g     O .rwdata	00000028 alt_dev_null
000011e8 g     F .text	000000d8 init_players
00011358 g     F .text	0000001c alt_dcache_flush_all
0000923c g     F .text	00000068 __hi0bits
00000330 g     F .text	00000064 IO_read
0000f93c g     F .text	00000088 .hidden __fixdfsi
00014a1c g       *ABS*	00000000 __ram_rwdata_end
000149fc g     O .rwdata	00000008 alt_dev_list
000104c0 g     F .text	00000100 write
00012ec0 g       *ABS*	00000000 __ram_rodata_end
0000fd40 g     F .text	000000b8 fstat
0000e720 g     F .text	000000e0 .hidden __ledf2
0000300c g     F .text	0000007c UsbPrintMem
00009620 g     F .text	00000140 __pow5mult
0000a87c g     F .text	00001424 ___vfiprintf_internal_r
000165ac g     O .bss	00000004 __nlocale_changed
000031ac g     F .text	00000008 .hidden __umodsi3
00001940 g     F .text	00000058 render_player_check
000166f4 g       *ABS*	00000000 end
000107d8 g     F .text	000000c4 altera_avalon_jtag_uart_init
000001cc g     F .exceptions	00000060 alt_instruction_exception_entry
0001247c g       *ABS*	00000000 __CTOR_LIST__
00055730 g       *ABS*	00000000 __alt_stack_pointer
0000fb38 g     F .text	00000064 .hidden __clzsi2
00010ea8 g     F .text	00000218 altera_avalon_jtag_uart_write
00007d8c g     F .text	00000004 __sfp_lock_acquire
00008a8c g     F .text	000000e8 memchr
00003c20 g     F .text	000020fc ___vfprintf_internal_r
0000298c g     F .text	000000fc UsbClassRequest
00007ef0 g     F .text	000002f0 _free_r
0000887c g     F .text	00000010 __locale_mb_cur_max
000122b4 g     F .text	00000194 __call_exitprocs
000165a8 g     O .bss	00000004 __mlocale_changed
000149dc g     O .rwdata	00000004 __malloc_sbrk_base
0000022c g     F .text	0000003c _start
000165c0 g     O .bss	00000004 _alt_tick_rate
00003ad0 g     F .text	00000064 rand
00009760 g     F .text	00000148 __lshift
000165c4 g     O .bss	00000004 _alt_nticks
0001020c g     F .text	00000104 read
0001062c g     F .text	00000048 alt_sys_init
000121a0 g     F .text	00000114 __register_exitproc
00009390 g     F .text	00000290 __multiply
00010b48 g     F .text	00000068 altera_avalon_jtag_uart_close
00001634 g     F .text	0000011c renderer
0000d378 g     F .text	00000028 .hidden __mulsi3
00012ec0 g       *ABS*	00000000 __ram_rwdata_start
0001247c g       *ABS*	00000000 __ram_rodata_start
000165cc g     O .bss	00000028 __malloc_current_mallinfo
000006a0 g     F .text	00000a0c setup_keyboard
00009c1c g     F .text	0000013c __d2b
00002188 g     F .text	00000144 UsbGetDeviceDesc1
00010674 g     F .text	00000060 altera_avalon_jtag_uart_read_fd
00011f68 g     F .text	000000d4 alt_get_fd
00011200 g     F .text	00000158 alt_busy_sleep
0000bd20 g     F .text	00000054 _close_r
00001d0c g     F .text	0000011c move_player
00012124 g     F .text	0000007c memcmp
00010734 g     F .text	00000050 altera_avalon_jtag_uart_close_fd
000166f4 g       *ABS*	00000000 __alt_stack_base
00010784 g     F .text	00000054 altera_avalon_jtag_uart_ioctl_fd
00005d40 g     F .text	00000130 __swsetup_r
0000dc3c g     F .text	00000980 .hidden __divdf3
00007c4c g     F .text	00000118 __sfp
00009e70 g     F .text	00000078 __copybits
00012f30 g     O .rwdata	00000408 __malloc_av_
00007d98 g     F .text	00000004 __sinit_lock_release
0000e800 g     F .text	0000086c .hidden __muldf3
0000a588 g     F .text	00000054 __sread
00002f08 g     F .text	00000084 UsbWaitTDListDone
00011e54 g     F .text	00000114 alt_find_file
000113c4 g     F .text	000000a4 alt_dev_llist_insert
0001017c g     F .text	00000020 __malloc_lock
00010390 g     F .text	000000b0 sbrk
000077c0 g     F .text	00000228 _fflush_r
0000bd74 g     F .text	000000d8 _calloc_r
0001658e g     O .bss	00000001 hot_plug_count
00016578 g       *ABS*	00000000 __bss_start
00008e08 g     F .text	00000124 memset
000010ac g     F .text	0000013c main
000165b8 g     O .bss	00000004 alt_envp
00016594 g     O .bss	00000004 __malloc_max_total_mem
000106d4 g     F .text	00000060 altera_avalon_jtag_uart_write_fd
00002890 g     F .text	000000fc UsbSetConfig
0000c3f4 g     F .text	0000001c __swbuf
00003ab8 g     F .text	00000018 srand
0000a6bc g     F .text	00000008 __sclose
00055730 g       *ABS*	00000000 __alt_heap_limit
0000bf4c g     F .text	00000014 fclose
00006098 g     F .text	00001728 _dtoa_r
000031dc g     F .text	000007a8 _malloc_r
0000c584 g     F .text	00000030 __ascii_wctomb
00014a08 g     O .rwdata	00000004 alt_errno
00008684 g     F .text	000000b8 _fwalk
000030f4 g     F .text	00000054 .hidden __divsi3
00007dcc g     F .text	00000124 _malloc_trim_r
00002a88 g     F .text	00000144 UsbGetHidDesc
0001247c g       *ABS*	00000000 __CTOR_END__
0000a6c4 g     F .text	000000a4 strcmp
0001247c g       *ABS*	00000000 __flash_rodata_start
0001247c g       *ABS*	00000000 __DTOR_LIST__
0000e5bc g     F .text	00000084 .hidden __nedf2
00001f98 g     F .text	00000044 UsbRead
00001bb8 g     F .text	00000074 parse_keycode
000105f8 g     F .text	00000034 alt_irq_init
00010310 g     F .text	00000080 alt_release_fd
00012d8c g     O .rodata	00000100 .hidden __clz_tab
000165a4 g     O .bss	00000004 _PathLocale
000120d8 g     F .text	00000014 atexit
0000bcc4 g     F .text	0000005c _write_r
000088ac g     F .text	0000001c setlocale
000149e8 g     O .rwdata	00000004 _impure_ptr
000165b0 g     O .bss	00000004 alt_argc
000114c4 g     F .text	0000005c _do_dtors
00008898 g     F .text	00000008 __locale_cjk_lang
00001cf0 g     F .text	0000001c check_projectiles
00000020 g       .exceptions	00000000 alt_irq_entry
00009aa0 g     F .text	00000060 __ulp
00007db4 g     F .text	00000018 __fp_unlock_all
00016584 g     O .bss	00000001 toggle
0000187c g     F .text	000000c4 render_players
000014b0 g     F .text	00000084 move_enemies
000149f4 g     O .rwdata	00000008 alt_fs_list
00002bcc g     F .text	0000033c UsbGetReportDesc
00000020 g       *ABS*	00000000 __ram_exceptions_start
000088c8 g     F .text	0000000c localeconv
0001153c g     F .text	00000050 alt_ic_isr_register
00014a1c g       *ABS*	00000000 _edata
000166f4 g       *ABS*	00000000 _end
00001f44 g     F .text	00000054 UsbWrite
0000145c g     F .text	00000054 count_enemies
0000022c g       *ABS*	00000000 __ram_exceptions_end
00010bb0 g     F .text	000000ec altera_avalon_jtag_uart_ioctl
00016590 g     O .bss	00000002 code
0001162c g     F .text	000000a4 alt_ic_irq_disable
0000a5e4 g     F .text	0000007c __swrite
000149e0 g     O .rwdata	00000004 __malloc_trim_threshold
0000888c g     F .text	0000000c __locale_msgcharset
0001657c g     O .bss	00000002 fs_device
000120ec g     F .text	00000038 exit
0000873c g     F .text	000000b8 _fwalk_reent
00009908 g     F .text	00000198 __mdiff
00003148 g     F .text	0000005c .hidden __modsi3
00055730 g       *ABS*	00000000 __alt_data_end
00000020 g     F .exceptions	00000000 alt_exception
00007d90 g     F .text	00000004 __sfp_lock_release
000002c8 g     F .text	00000068 IO_write
00012448 g     F .text	00000034 _exit
000110c0 g     F .text	00000140 alt_alarm_start
0000c610 g     F .text	0000010c .hidden __muldi3
000088d4 g     F .text	000001b8 __smakebuf_r
00003b88 g     F .text	00000098 strlen
00011aa8 g     F .text	00000160 open
0000e640 g     F .text	000000e0 .hidden __gedf2
000149f0 g     O .rwdata	00000004 __wctomb
0000a864 g     F .text	00000018 __sprint_r
00011520 g     F .text	0000001c alt_icache_flush_all
00014a10 g     O .rwdata	00000004 alt_priority_mask
0001158c g     F .text	000000a0 alt_ic_irq_enable
00005d1c g     F .text	00000024 __vfprintf_internal
0000c5b4 g     F .text	0000005c _wctomb_r
0000f06c g     F .text	000008d0 .hidden __subdf3
00001998 g     F .text	00000220 keycode_effect
000092a4 g     F .text	000000b0 __lo0bits
000024a0 g     F .text	0000018c UsbGetConfigDesc1
00014a14 g     O .rwdata	00000008 alt_alarm_list
00011468 g     F .text	0000005c _do_ctors
00001fdc g     F .text	000000b0 UsbSoftReset
0000c4ac g     F .text	000000d8 wcrtomb
0000fbec g     F .text	000000d8 close
000022cc g     F .text	000001d4 UsbGetDeviceDesc2
0000ff58 g     F .text	00000080 alt_load
0000c0e4 g     F .text	00000058 fputwc
000031c8 g     F .text	00000014 free
00007d94 g     F .text	00000004 __sinit_lock_acquire
00008ffc g     F .text	0000013c __multadd
00008fd4 g     F .text	00000028 _Bfree



Disassembly of section .entry:

00000000 <__reset>:
 * Jump to the _start entry point in the .text section if reset code
 * is allowed or if optimizing for RTL simulation.
 */
#if defined(ALT_ALLOW_CODE_AT_RESET) || defined(ALT_SIM_OPTIMIZE)
    /* Jump to the _start entry point in the .text section. */
    movhi r1, %hi(_start)
   0:	00400034 	movhi	at,0
    ori r1, r1, %lo(_start)
   4:	08408b14 	ori	at,at,556
    jmp r1
   8:	0800683a 	jmp	at
	...

Disassembly of section .exceptions:

00000020 <alt_exception>:

#else /* ALT_EXCEPTION_STACK disabled */
        /* 
         * Reserve space on normal stack for registers about to be pushed.
         */
        addi  sp, sp, -76
  20:	deffed04 	addi	sp,sp,-76
         * documentation for details).
         *
         * Leave a gap in the stack frame at 4(sp) for the muldiv handler to
         * store zero into.
         */
        stw   ra,  0(sp)
  24:	dfc00015 	stw	ra,0(sp)
        stw   r1,   8(sp)
  28:	d8400215 	stw	at,8(sp)
        stw   r2,  12(sp)
  2c:	d8800315 	stw	r2,12(sp)
        stw   r3,  16(sp)
  30:	d8c00415 	stw	r3,16(sp)
        stw   r4,  20(sp)
  34:	d9000515 	stw	r4,20(sp)
        stw   r5,  24(sp)
  38:	d9400615 	stw	r5,24(sp)
        stw   r6,  28(sp)
  3c:	d9800715 	stw	r6,28(sp)
        stw   r7,  32(sp)
  40:	d9c00815 	stw	r7,32(sp)
        rdctl r5, estatus   /* Read early to avoid usage stall */
  44:	000b307a 	rdctl	r5,estatus
        stw   r8,  36(sp)
  48:	da000915 	stw	r8,36(sp)
        stw   r9,  40(sp)
  4c:	da400a15 	stw	r9,40(sp)
        stw   r10, 44(sp)
  50:	da800b15 	stw	r10,44(sp)
        stw   r11, 48(sp)
  54:	dac00c15 	stw	r11,48(sp)
        stw   r12, 52(sp)
  58:	db000d15 	stw	r12,52(sp)
        stw   r13, 56(sp)
  5c:	db400e15 	stw	r13,56(sp)
        stw   r14, 60(sp)
  60:	db800f15 	stw	r14,60(sp)
        stw   r15, 64(sp)
  64:	dbc01015 	stw	r15,64(sp)
        /*
         * ea-4 contains the address of the instruction being executed
         * when the exception occured. For interrupt exceptions, we will
         * will be re-issue the isntruction. Store it in 72(sp)
         */
        stw   r5,  68(sp)  /* estatus */
  68:	d9401115 	stw	r5,68(sp)
        addi  r15, ea, -4  /* instruction that caused exception */
  6c:	ebffff04 	addi	r15,ea,-4
        stw   r15,  72(sp)
  70:	dbc01215 	stw	r15,72(sp)
#else
        /*
         * Test to see if the exception was a software exception or caused 
         * by an external interrupt, and vector accordingly.
         */
        rdctl r4, ipending
  74:	0009313a 	rdctl	r4,ipending
        andi  r2, r5, 1
  78:	2880004c 	andi	r2,r5,1
        beq   r2, zero, .Lnot_irq
  7c:	10000326 	beq	r2,zero,8c <alt_exception+0x6c>
        beq   r4, zero, .Lnot_irq
  80:	20000226 	beq	r4,zero,8c <alt_exception+0x6c>
        /*
         * Now that all necessary registers have been preserved, call 
         * alt_irq_handler() to process the interrupts.
         */

        call alt_irq_handler
  84:	00000fc0 	call	fc <alt_irq_handler>

        .section .exceptions.irqreturn, "xa"

        br    .Lexception_exit
  88:	00000706 	br	a8 <alt_exception+0x88>
         * upon completion, so we write ea (address of instruction *after*
         * the one where the exception occured) into 72(sp). The actual
         * instruction that caused the exception is written in r2, which these
         * handlers will utilize.
         */
        stw   ea,  72(sp)  /* Don't re-issue */
  8c:	df401215 	stw	ea,72(sp)
        ldhu.n  r2, 0(r4)
        ldhu.n  r3, 2(r4)
        slli.n  r3, r3, 16
        or.n    r2, r2, r3 /* Instruction that caused exception */
#else
        ldw   r2, -4(ea)   /* Instruction that caused exception */
  90:	e8bfff17 	ldw	r2,-4(ea)
         * debugger is present) or go into an infinite loop since the
         * handling behavior is undefined; in that case we will not return here.
         */

        /* Load exception-causing address as first argument (r4) */
        addi   r4, ea, -4
  94:	e93fff04 	addi	r4,ea,-4

        /* Call the instruction-exception entry */
        call   alt_instruction_exception_entry
  98:	00001cc0 	call	1cc <alt_instruction_exception_entry>
         * instruction
         *
         * Return code was 0: Skip. The instruction after the exception is
         * already stored in 72(sp).
         */
        bne   r2, r0, .Lexception_exit
  9c:	1000021e 	bne	r2,zero,a8 <alt_exception+0x88>

        /*
         * Otherwise, modify 72(sp) to re-issue the instruction that caused the
         * exception.
         */
        addi  r15, ea, -4  /* instruction that caused exception */
  a0:	ebffff04 	addi	r15,ea,-4
        stw   r15,  72(sp)
  a4:	dbc01215 	stw	r15,72(sp)
        /* 
         * Restore the saved registers, so that all general purpose registers 
         * have been restored to their state at the time the interrupt occured.
         */

        ldw   r5,  68(sp)
  a8:	d9401117 	ldw	r5,68(sp)
        ldw   ea,  72(sp)  /* This becomes the PC once eret is executed */
  ac:	df401217 	ldw	ea,72(sp)
        ldw   ra,   0(sp)
  b0:	dfc00017 	ldw	ra,0(sp)

        wrctl estatus, r5
  b4:	2801707a 	wrctl	estatus,r5

        ldw   r1,   8(sp)
  b8:	d8400217 	ldw	at,8(sp)
        ldw   r2,  12(sp)
  bc:	d8800317 	ldw	r2,12(sp)
        ldw   r3,  16(sp)
  c0:	d8c00417 	ldw	r3,16(sp)
        ldw   r4,  20(sp)
  c4:	d9000517 	ldw	r4,20(sp)
        ldw   r5,  24(sp)
  c8:	d9400617 	ldw	r5,24(sp)
        ldw   r6,  28(sp)
  cc:	d9800717 	ldw	r6,28(sp)
        ldw   r7,  32(sp)
  d0:	d9c00817 	ldw	r7,32(sp)

#if defined(ALT_EXCEPTION_STACK) && defined(ALT_STACK_CHECK)
        ldw   et, %gprel(alt_exception_old_stack_limit)(gp)
#endif

        ldw   r8,  36(sp)
  d4:	da000917 	ldw	r8,36(sp)
        ldw   r9,  40(sp)
  d8:	da400a17 	ldw	r9,40(sp)
        ldw   r10, 44(sp)
  dc:	da800b17 	ldw	r10,44(sp)
        ldw   r11, 48(sp)
  e0:	dac00c17 	ldw	r11,48(sp)
        ldw   r12, 52(sp)
  e4:	db000d17 	ldw	r12,52(sp)
        ldw   r13, 56(sp)
  e8:	db400e17 	ldw	r13,56(sp)
        ldw   r14, 60(sp)
  ec:	db800f17 	ldw	r14,60(sp)
        ldw   r15, 64(sp)
  f0:	dbc01017 	ldw	r15,64(sp)
        stw   et, %gprel(alt_stack_limit_value)(gp)
        stw   zero, %gprel(alt_exception_old_stack_limit)(gp)
#endif /* ALT_STACK_CHECK */
        ldw   sp,  76(sp)
#else /* ALT_EXCEPTION_STACK disabled */
        addi  sp, sp, 76
  f4:	dec01304 	addi	sp,sp,76

        /*
         * Return to the interrupted instruction.
         */

        eret
  f8:	ef80083a 	eret

000000fc <alt_irq_handler>:
 * instruction is present if the macro ALT_CI_INTERRUPT_VECTOR defined.
 */

void alt_irq_handler (void) __attribute__ ((section (".exceptions")));
void alt_irq_handler (void)
{
  fc:	defff904 	addi	sp,sp,-28
 100:	dfc00615 	stw	ra,24(sp)
 104:	df000515 	stw	fp,20(sp)
 108:	df000504 	addi	fp,sp,20
  
  /*
   * Notify the operating system that we are at interrupt level.
   */ 
  
  ALT_OS_INT_ENTER();
 10c:	0001883a 	nop
#ifndef NIOS2_EIC_PRESENT
static ALT_INLINE alt_u32 ALT_ALWAYS_INLINE alt_irq_pending (void)
{
  alt_u32 active;

  NIOS2_READ_IPENDING (active);
 110:	0005313a 	rdctl	r2,ipending
 114:	e0bffe15 	stw	r2,-8(fp)

  return active;
 118:	e0bffe17 	ldw	r2,-8(fp)
   * Consider the case where the high priority interupt is asserted during
   * the interrupt entry sequence for a lower priority interrupt to see why
   * this is the case.
   */

  active = alt_irq_pending ();
 11c:	e0bffb15 	stw	r2,-20(fp)

  do
  {
    i = 0;
 120:	e03ffd15 	stw	zero,-12(fp)
    mask = 1;
 124:	00800044 	movi	r2,1
 128:	e0bffc15 	stw	r2,-16(fp)
     * called to clear the interrupt condition.
     */

    do
    {
      if (active & mask)
 12c:	e0fffb17 	ldw	r3,-20(fp)
 130:	e0bffc17 	ldw	r2,-16(fp)
 134:	1884703a 	and	r2,r3,r2
 138:	10001426 	beq	r2,zero,18c <alt_irq_handler+0x90>
      { 
#ifdef ALT_ENHANCED_INTERRUPT_API_PRESENT
        alt_irq[i].handler(alt_irq[i].context); 
 13c:	00800074 	movhi	r2,1
 140:	10997d04 	addi	r2,r2,26100
 144:	e0fffd17 	ldw	r3,-12(fp)
 148:	180690fa 	slli	r3,r3,3
 14c:	10c5883a 	add	r2,r2,r3
 150:	10c00017 	ldw	r3,0(r2)
 154:	00800074 	movhi	r2,1
 158:	10997d04 	addi	r2,r2,26100
 15c:	e13ffd17 	ldw	r4,-12(fp)
 160:	200890fa 	slli	r4,r4,3
 164:	1105883a 	add	r2,r2,r4
 168:	10800104 	addi	r2,r2,4
 16c:	10800017 	ldw	r2,0(r2)
 170:	1009883a 	mov	r4,r2
 174:	183ee83a 	callr	r3
#else
        alt_irq[i].handler(alt_irq[i].context, i); 
#endif
        break;
 178:	0001883a 	nop
#ifndef NIOS2_EIC_PRESENT
static ALT_INLINE alt_u32 ALT_ALWAYS_INLINE alt_irq_pending (void)
{
  alt_u32 active;

  NIOS2_READ_IPENDING (active);
 17c:	0005313a 	rdctl	r2,ipending
 180:	e0bfff15 	stw	r2,-4(fp)

  return active;
 184:	e0bfff17 	ldw	r2,-4(fp)
 188:	00000706 	br	1a8 <alt_irq_handler+0xac>
      }
      mask <<= 1;
 18c:	e0bffc17 	ldw	r2,-16(fp)
 190:	1085883a 	add	r2,r2,r2
 194:	e0bffc15 	stw	r2,-16(fp)
      i++;
 198:	e0bffd17 	ldw	r2,-12(fp)
 19c:	10800044 	addi	r2,r2,1
 1a0:	e0bffd15 	stw	r2,-12(fp)

    } while (1);
 1a4:	003fe106 	br	12c <__alt_data_end+0xfffaa9fc>

    active = alt_irq_pending ();
 1a8:	e0bffb15 	stw	r2,-20(fp)
    
  } while (active);
 1ac:	e0bffb17 	ldw	r2,-20(fp)
 1b0:	103fdb1e 	bne	r2,zero,120 <__alt_data_end+0xfffaa9f0>

  /*
   * Notify the operating system that interrupt processing is complete.
   */ 

  ALT_OS_INT_EXIT();
 1b4:	0001883a 	nop
}
 1b8:	e037883a 	mov	sp,fp
 1bc:	dfc00117 	ldw	ra,4(sp)
 1c0:	df000017 	ldw	fp,0(sp)
 1c4:	dec00204 	addi	sp,sp,8
 1c8:	f800283a 	ret

000001cc <alt_instruction_exception_entry>:
 * that handler if it has been registered. Absent a handler, it will
 * break break or hang as discussed below.
 */
int 
alt_instruction_exception_entry (alt_u32 exception_pc)
{
 1cc:	defffb04 	addi	sp,sp,-20
 1d0:	dfc00415 	stw	ra,16(sp)
 1d4:	df000315 	stw	fp,12(sp)
 1d8:	df000304 	addi	fp,sp,12
 1dc:	e13fff15 	stw	r4,-4(fp)
  cause = ( (cause & NIOS2_EXCEPTION_REG_CAUSE_MASK) >>
              NIOS2_EXCEPTION_REG_CAUSE_OFST );

  NIOS2_READ_BADADDR(badaddr);
#else
  cause = NIOS2_EXCEPTION_CAUSE_NOT_PRESENT;
 1e0:	00bfffc4 	movi	r2,-1
 1e4:	e0bffd15 	stw	r2,-12(fp)
  badaddr = 0;
 1e8:	e03ffe15 	stw	zero,-8(fp)
#endif /* NIOS2_HAS_EXTRA_EXCEPTION_INFO */

  if(alt_instruction_exception_handler) {
 1ec:	d0a6fb17 	ldw	r2,-25620(gp)
 1f0:	10000726 	beq	r2,zero,210 <alt_instruction_exception_entry+0x44>
     * Call handler. Its return value indicates whether the exception-causing
     * instruction should be re-issued. The code that called us,
     * alt_eceptions_entry.S, will look at this value and adjust the ea
     * register as necessary
     */
    return alt_instruction_exception_handler(cause, exception_pc, badaddr);
 1f4:	d0a6fb17 	ldw	r2,-25620(gp)
 1f8:	e0fffd17 	ldw	r3,-12(fp)
 1fc:	1809883a 	mov	r4,r3
 200:	e17fff17 	ldw	r5,-4(fp)
 204:	e1bffe17 	ldw	r6,-8(fp)
 208:	103ee83a 	callr	r2
 20c:	00000206 	br	218 <alt_instruction_exception_entry+0x4c>
   *    (a peripheral which negates its interrupt output before its
   *    interrupt handler has been executed will cause spurious interrupts)
   */
  else {
#ifdef NIOS2_HAS_DEBUG_STUB
    NIOS2_BREAK();
 210:	003da03a 	break	0
      ;
#endif /* NIOS2_HAS_DEBUG_STUB */
  }

  /* We should not get here. Remove compiler warning. */
  return NIOS2_EXCEPTION_RETURN_REISSUE_INST;
 214:	0005883a 	mov	r2,zero
}
 218:	e037883a 	mov	sp,fp
 21c:	dfc00117 	ldw	ra,4(sp)
 220:	df000017 	ldw	fp,0(sp)
 224:	dec00204 	addi	sp,sp,8
 228:	f800283a 	ret

Disassembly of section .text:

0000022c <_start>:

    /*
     * Now that the caches are initialized, set up the stack pointer and global pointer.
     * The values provided by the linker are assumed to be correctly aligned.
     */
    movhi sp, %hi(__alt_stack_pointer)
     22c:	06c00174 	movhi	sp,5
    ori sp, sp, %lo(__alt_stack_pointer)
     230:	ded5cc14 	ori	sp,sp,22320
    movhi gp, %hi(_gp)
     234:	06800074 	movhi	gp,1
    ori gp, gp, %lo(_gp)
     238:	d6b27714 	ori	gp,gp,51676
 */
#ifndef ALT_SIM_OPTIMIZE
    /* Log that the BSS is about to be cleared. */
    ALT_LOG_PUTS(alt_log_msg_bss)

    movhi r2, %hi(__bss_start)
     23c:	00800074 	movhi	r2,1
    ori r2, r2, %lo(__bss_start)
     240:	10995e14 	ori	r2,r2,25976

    movhi r3, %hi(__bss_end)
     244:	00c00074 	movhi	r3,1
    ori r3, r3, %lo(__bss_end)
     248:	18d9bd14 	ori	r3,r3,26356

    beq r2, r3, 1f
     24c:	10c00326 	beq	r2,r3,25c <_start+0x30>

0:
    stw zero, (r2)
     250:	10000015 	stw	zero,0(r2)
    addi r2, r2, 4
     254:	10800104 	addi	r2,r2,4
    bltu r2, r3, 0b
     258:	10fffd36 	bltu	r2,r3,250 <__alt_data_end+0xfffaab20>
     * section aren't defined until alt_load() has been called).
     */
    mov   et, zero
#endif

    call alt_load
     25c:	000ff580 	call	ff58 <alt_load>

    /* Log that alt_main is about to be called. */
    ALT_LOG_PUTS(alt_log_msg_alt_main)

    /* Call the C entry point. It should never return. */
    call alt_main
     260:	00101040 	call	10104 <alt_main>

00000264 <alt_after_alt_main>:

    /* Wait in infinite loop in case alt_main does return. */
alt_after_alt_main:
    br alt_after_alt_main
     264:	003fff06 	br	264 <__alt_data_end+0xfffaab34>

00000268 <IO_init>:
#define otg_hpi_cs			(volatile char*)	OTG_HPI_CS_BASE //FOR SOME REASON CS BASE BEHAVES WEIRDLY MIGHT HAVE TO SET MANUALLY
#define otg_hpi_w			(volatile char*)	OTG_HPI_W_BASE


void IO_init(void)
{
     268:	deffff04 	addi	sp,sp,-4
     26c:	df000015 	stw	fp,0(sp)
     270:	d839883a 	mov	fp,sp
	*otg_hpi_cs = 0;
     274:	00800234 	movhi	r2,8
     278:	10841404 	addi	r2,r2,4176
     27c:	10000005 	stb	zero,0(r2)
	*otg_hpi_r = 1;
     280:	00800234 	movhi	r2,8
     284:	10840804 	addi	r2,r2,4128
     288:	00c00044 	movi	r3,1
     28c:	10c00005 	stb	r3,0(r2)
	*otg_hpi_w = 1;
     290:	00800234 	movhi	r2,8
     294:	10840404 	addi	r2,r2,4112
     298:	00c00044 	movi	r3,1
     29c:	10c00005 	stb	r3,0(r2)
	*otg_hpi_address = 0;
     2a0:	00800234 	movhi	r2,8
     2a4:	10841004 	addi	r2,r2,4160
     2a8:	10000015 	stw	zero,0(r2)
	*otg_hpi_data = 0;
     2ac:	00800234 	movhi	r2,8
     2b0:	10840c04 	addi	r2,r2,4144
     2b4:	10000015 	stw	zero,0(r2)
}
     2b8:	e037883a 	mov	sp,fp
     2bc:	df000017 	ldw	fp,0(sp)
     2c0:	dec00104 	addi	sp,sp,4
     2c4:	f800283a 	ret

000002c8 <IO_write>:

void IO_write(alt_u8 Address, alt_u16 Data)
{
     2c8:	defffd04 	addi	sp,sp,-12
     2cc:	df000215 	stw	fp,8(sp)
     2d0:	df000204 	addi	fp,sp,8
     2d4:	2007883a 	mov	r3,r4
     2d8:	2805883a 	mov	r2,r5
     2dc:	e0fffe05 	stb	r3,-8(fp)
     2e0:	e0bfff0d 	sth	r2,-4(fp)
	*otg_hpi_address = Address;
     2e4:	00800234 	movhi	r2,8
     2e8:	10841004 	addi	r2,r2,4160
     2ec:	e0fffe03 	ldbu	r3,-8(fp)
     2f0:	10c00015 	stw	r3,0(r2)
	*otg_hpi_data = Data;
     2f4:	00800234 	movhi	r2,8
     2f8:	10840c04 	addi	r2,r2,4144
     2fc:	e0ffff0b 	ldhu	r3,-4(fp)
     300:	10c00015 	stw	r3,0(r2)
	*otg_hpi_w = 0;
     304:	00800234 	movhi	r2,8
     308:	10840404 	addi	r2,r2,4112
     30c:	10000005 	stb	zero,0(r2)
	*otg_hpi_w = 1;
     310:	00800234 	movhi	r2,8
     314:	10840404 	addi	r2,r2,4112
     318:	00c00044 	movi	r3,1
     31c:	10c00005 	stb	r3,0(r2)
}
     320:	e037883a 	mov	sp,fp
     324:	df000017 	ldw	fp,0(sp)
     328:	dec00104 	addi	sp,sp,4
     32c:	f800283a 	ret

00000330 <IO_read>:

alt_u16 IO_read(alt_u8 Address)
{
     330:	defffd04 	addi	sp,sp,-12
     334:	df000215 	stw	fp,8(sp)
     338:	df000204 	addi	fp,sp,8
     33c:	2005883a 	mov	r2,r4
     340:	e0bfff05 	stb	r2,-4(fp)
	alt_u16 temp;
	*otg_hpi_address = Address;
     344:	00800234 	movhi	r2,8
     348:	10841004 	addi	r2,r2,4160
     34c:	e0ffff03 	ldbu	r3,-4(fp)
     350:	10c00015 	stw	r3,0(r2)
	*otg_hpi_r = 0;
     354:	00800234 	movhi	r2,8
     358:	10840804 	addi	r2,r2,4128
     35c:	10000005 	stb	zero,0(r2)
	temp = *otg_hpi_data;
     360:	00800234 	movhi	r2,8
     364:	10840c04 	addi	r2,r2,4144
     368:	10800017 	ldw	r2,0(r2)
     36c:	e0bffe0d 	sth	r2,-8(fp)
	*otg_hpi_r = 1;
     370:	00800234 	movhi	r2,8
     374:	10840804 	addi	r2,r2,4128
     378:	00c00044 	movi	r3,1
     37c:	10c00005 	stb	r3,0(r2)

	return temp;
     380:	e0bffe0b 	ldhu	r2,-8(fp)
}
     384:	e037883a 	mov	sp,fp
     388:	df000017 	ldw	fp,0(sp)
     38c:	dec00104 	addi	sp,sp,4
     390:	f800283a 	ret

00000394 <get_keycode>:
alt_u16 code;




int get_keycode(unsigned int *keycode1,unsigned int *keycode2){
     394:	defffc04 	addi	sp,sp,-16
     398:	dfc00315 	stw	ra,12(sp)
     39c:	df000215 	stw	fp,8(sp)
     3a0:	df000204 	addi	fp,sp,8
     3a4:	e13ffe15 	stw	r4,-8(fp)
     3a8:	e17fff15 	stw	r5,-4(fp)
				toggle++;
     3ac:	d0a6ea03 	ldbu	r2,-25688(gp)
     3b0:	10800044 	addi	r2,r2,1
     3b4:	d0a6ea05 	stb	r2,-25688(gp)
				IO_write(HPI_ADDR,0x0500); //the start address
     3b8:	01000084 	movi	r4,2
     3bc:	01414004 	movi	r5,1280
     3c0:	00002c80 	call	2c8 <IO_write>
				//data phase IN-1
				IO_write(HPI_DATA,0x051c); //500
     3c4:	0009883a 	mov	r4,zero
     3c8:	01414704 	movi	r5,1308
     3cc:	00002c80 	call	2c8 <IO_write>

				IO_write(HPI_DATA,0x000f & data_size);//2 data length
     3d0:	d0a6eb83 	ldbu	r2,-25682(gp)
     3d4:	10803fcc 	andi	r2,r2,255
     3d8:	108003cc 	andi	r2,r2,15
     3dc:	0009883a 	mov	r4,zero
     3e0:	100b883a 	mov	r5,r2
     3e4:	00002c80 	call	2c8 <IO_write>

				IO_write(HPI_DATA,0x0291);//4 //endpoint 1
     3e8:	0009883a 	mov	r4,zero
     3ec:	0140a444 	movi	r5,657
     3f0:	00002c80 	call	2c8 <IO_write>
				if(toggle%2)
     3f4:	d0a6ea03 	ldbu	r2,-25688(gp)
     3f8:	1080004c 	andi	r2,r2,1
     3fc:	10803fcc 	andi	r2,r2,255
     400:	10000426 	beq	r2,zero,414 <get_keycode+0x80>
				{
					IO_write(HPI_DATA,0x0001);//6 //data 1
     404:	0009883a 	mov	r4,zero
     408:	01400044 	movi	r5,1
     40c:	00002c80 	call	2c8 <IO_write>
     410:	00000306 	br	420 <get_keycode+0x8c>
				}
				else
				{
					IO_write(HPI_DATA,0x0041);//6 //data 1
     414:	0009883a 	mov	r4,zero
     418:	01401044 	movi	r5,65
     41c:	00002c80 	call	2c8 <IO_write>
				}
				IO_write(HPI_DATA,0x0013);//8
     420:	0009883a 	mov	r4,zero
     424:	014004c4 	movi	r5,19
     428:	00002c80 	call	2c8 <IO_write>
				IO_write(HPI_DATA,0x0000);//a
     42c:	0009883a 	mov	r4,zero
     430:	000b883a 	mov	r5,zero
     434:	00002c80 	call	2c8 <IO_write>
				UsbWrite(HUSB_SIE1_pCurrentTDPtr,0x0500); //HUSB_SIE1_pCurrentTDPtr
     438:	01006c04 	movi	r4,432
     43c:	01414004 	movi	r5,1280
     440:	0001f440 	call	1f44 <UsbWrite>

				while (!(IO_read(HPI_STATUS) & HPI_STATUS_SIE1msg_FLAG) )  //read sie1 msg register
     444:	00002506 	br	4dc <get_keycode+0x148>
				{
					IO_write(HPI_ADDR,0x0500); //the start address
     448:	01000084 	movi	r4,2
     44c:	01414004 	movi	r5,1280
     450:	00002c80 	call	2c8 <IO_write>
					//data phase IN-1
					IO_write(HPI_DATA,0x051c); //500
     454:	0009883a 	mov	r4,zero
     458:	01414704 	movi	r5,1308
     45c:	00002c80 	call	2c8 <IO_write>

					IO_write(HPI_DATA,0x000f & data_size);//2 data length
     460:	d0a6eb83 	ldbu	r2,-25682(gp)
     464:	10803fcc 	andi	r2,r2,255
     468:	108003cc 	andi	r2,r2,15
     46c:	0009883a 	mov	r4,zero
     470:	100b883a 	mov	r5,r2
     474:	00002c80 	call	2c8 <IO_write>

					IO_write(HPI_DATA,0x0291);//4 //endpoint 1
     478:	0009883a 	mov	r4,zero
     47c:	0140a444 	movi	r5,657
     480:	00002c80 	call	2c8 <IO_write>
					if(toggle%2)
     484:	d0a6ea03 	ldbu	r2,-25688(gp)
     488:	1080004c 	andi	r2,r2,1
     48c:	10803fcc 	andi	r2,r2,255
     490:	10000426 	beq	r2,zero,4a4 <get_keycode+0x110>
					{
						IO_write(HPI_DATA,0x0001);//6 //data 1
     494:	0009883a 	mov	r4,zero
     498:	01400044 	movi	r5,1
     49c:	00002c80 	call	2c8 <IO_write>
     4a0:	00000306 	br	4b0 <get_keycode+0x11c>
					}
					else
					{
						IO_write(HPI_DATA,0x0041);//6 //data 1
     4a4:	0009883a 	mov	r4,zero
     4a8:	01401044 	movi	r5,65
     4ac:	00002c80 	call	2c8 <IO_write>
					}
					IO_write(HPI_DATA,0x0013);//8
     4b0:	0009883a 	mov	r4,zero
     4b4:	014004c4 	movi	r5,19
     4b8:	00002c80 	call	2c8 <IO_write>
					IO_write(HPI_DATA,0x0000);//
     4bc:	0009883a 	mov	r4,zero
     4c0:	000b883a 	mov	r5,zero
     4c4:	00002c80 	call	2c8 <IO_write>
					UsbWrite(HUSB_SIE1_pCurrentTDPtr,0x0500); //HUSB_SIE1_pCurrentTDPtr
     4c8:	01006c04 	movi	r4,432
     4cc:	01414004 	movi	r5,1280
     4d0:	0001f440 	call	1f44 <UsbWrite>
					usleep(10*1000);
     4d4:	0109c404 	movi	r4,10000
     4d8:	00104400 	call	10440 <usleep>
				}
				IO_write(HPI_DATA,0x0013);//8
				IO_write(HPI_DATA,0x0000);//a
				UsbWrite(HUSB_SIE1_pCurrentTDPtr,0x0500); //HUSB_SIE1_pCurrentTDPtr

				while (!(IO_read(HPI_STATUS) & HPI_STATUS_SIE1msg_FLAG) )  //read sie1 msg register
     4dc:	010000c4 	movi	r4,3
     4e0:	00003300 	call	330 <IO_read>
     4e4:	10bfffcc 	andi	r2,r2,65535
     4e8:	1080040c 	andi	r2,r2,16
     4ec:	103fd626 	beq	r2,zero,448 <__alt_data_end+0xfffaad18>
					usleep(10*1000);
				}//end while



				usb_ctl_val = UsbWaitTDListDone();
     4f0:	0002f080 	call	2f08 <UsbWaitTDListDone>
     4f4:	d0a6eb0d 	sth	r2,-25684(gp)

				// packet starts from 0x051c, reading third byte
				// TASK: Write the address to read from the memory for byte 3 of the report descriptor to HPI_ADDR.
				IO_write(HPI_ADDR,0x051e); //the start address
     4f8:	01000084 	movi	r4,2
     4fc:	01414784 	movi	r5,1310
     500:	00002c80 	call	2c8 <IO_write>
				*keycode1 = IO_read(HPI_DATA);
     504:	0009883a 	mov	r4,zero
     508:	00003300 	call	330 <IO_read>
     50c:	10ffffcc 	andi	r3,r2,65535
     510:	e0bffe17 	ldw	r2,-8(fp)
     514:	10c00015 	stw	r3,0(r2)
				keycode=*keycode1;
     518:	e0bffe17 	ldw	r2,-8(fp)
     51c:	10800017 	ldw	r2,0(r2)
     520:	d0a6e915 	stw	r2,-25692(gp)


				*keycode2 = IO_read(HPI_DATA);
     524:	0009883a 	mov	r4,zero
     528:	00003300 	call	330 <IO_read>
     52c:	10ffffcc 	andi	r3,r2,65535
     530:	e0bfff17 	ldw	r2,-4(fp)
     534:	10c00015 	stw	r3,0(r2)


				IOWR(KEYCODE_BASE, 0, keycode & 0xff);
     538:	d0a6e917 	ldw	r2,-25692(gp)
     53c:	10c03fcc 	andi	r3,r2,255
     540:	00800234 	movhi	r2,8
     544:	10841804 	addi	r2,r2,4192
     548:	10c00035 	stwio	r3,0(r2)



				usb_ctl_val = UsbRead(ctl_reg);
     54c:	d0a6e70b 	ldhu	r2,-25700(gp)
     550:	10bfffcc 	andi	r2,r2,65535
     554:	1009883a 	mov	r4,r2
     558:	0001f980 	call	1f98 <UsbRead>
     55c:	d0a6eb0d 	sth	r2,-25684(gp)

				if(!(usb_ctl_val & no_device))
     560:	d0e6eb0b 	ldhu	r3,-25684(gp)
     564:	d0a6e78b 	ldhu	r2,-25698(gp)
     568:	1884703a 	and	r2,r3,r2
     56c:	10bfffcc 	andi	r2,r2,65535
     570:	1000211e 	bne	r2,zero,5f8 <get_keycode+0x264>
				{
					//USB hot plug routine
					for(hot_plug_count = 0 ; hot_plug_count < 7 ; hot_plug_count++)
     574:	d026ec85 	stb	zero,-25678(gp)
     578:	00001006 	br	5bc <get_keycode+0x228>
					{
						usleep(5*1000);
     57c:	0104e204 	movi	r4,5000
     580:	00104400 	call	10440 <usleep>
						usb_ctl_val = UsbRead(ctl_reg);
     584:	d0a6e70b 	ldhu	r2,-25700(gp)
     588:	10bfffcc 	andi	r2,r2,65535
     58c:	1009883a 	mov	r4,r2
     590:	0001f980 	call	1f98 <UsbRead>
     594:	d0a6eb0d 	sth	r2,-25684(gp)
						if(usb_ctl_val & no_device) break;
     598:	d0e6eb0b 	ldhu	r3,-25684(gp)
     59c:	d0a6e78b 	ldhu	r2,-25698(gp)
     5a0:	1884703a 	and	r2,r3,r2
     5a4:	10bfffcc 	andi	r2,r2,65535
     5a8:	10000126 	beq	r2,zero,5b0 <get_keycode+0x21c>
     5ac:	00000706 	br	5cc <get_keycode+0x238>
				usb_ctl_val = UsbRead(ctl_reg);

				if(!(usb_ctl_val & no_device))
				{
					//USB hot plug routine
					for(hot_plug_count = 0 ; hot_plug_count < 7 ; hot_plug_count++)
     5b0:	d0a6ec83 	ldbu	r2,-25678(gp)
     5b4:	10800044 	addi	r2,r2,1
     5b8:	d0a6ec85 	stb	r2,-25678(gp)
     5bc:	d0a6ec83 	ldbu	r2,-25678(gp)
     5c0:	10803fcc 	andi	r2,r2,255
     5c4:	108001f0 	cmpltui	r2,r2,7
     5c8:	103fec1e 	bne	r2,zero,57c <__alt_data_end+0xfffaae4c>
					{
						usleep(5*1000);
						usb_ctl_val = UsbRead(ctl_reg);
						if(usb_ctl_val & no_device) break;
					}
					if(!(usb_ctl_val & no_device))
     5cc:	d0e6eb0b 	ldhu	r3,-25684(gp)
     5d0:	d0a6e78b 	ldhu	r2,-25698(gp)
     5d4:	1884703a 	and	r2,r3,r2
     5d8:	10bfffcc 	andi	r2,r2,65535
     5dc:	1000061e 	bne	r2,zero,5f8 <get_keycode+0x264>
					{
						printf("\n[INFO]: the keyboard has been removed!!! \n");
     5e0:	01000074 	movhi	r4,1
     5e4:	21091f04 	addi	r4,r4,9340
     5e8:	0003aa40 	call	3aa4 <puts>
						printf("[INFO]: please insert again!!! \n");
     5ec:	01000074 	movhi	r4,1
     5f0:	21092a04 	addi	r4,r4,9384
     5f4:	0003aa40 	call	3aa4 <puts>
					}
				}

				while (!(usb_ctl_val & no_device))
     5f8:	00001e06 	br	674 <get_keycode+0x2e0>
				{

					usb_ctl_val = UsbRead(ctl_reg);
     5fc:	d0a6e70b 	ldhu	r2,-25700(gp)
     600:	10bfffcc 	andi	r2,r2,65535
     604:	1009883a 	mov	r4,r2
     608:	0001f980 	call	1f98 <UsbRead>
     60c:	d0a6eb0d 	sth	r2,-25684(gp)
					usleep(5*1000);
     610:	0104e204 	movi	r4,5000
     614:	00104400 	call	10440 <usleep>
					usb_ctl_val = UsbRead(ctl_reg);
     618:	d0a6e70b 	ldhu	r2,-25700(gp)
     61c:	10bfffcc 	andi	r2,r2,65535
     620:	1009883a 	mov	r4,r2
     624:	0001f980 	call	1f98 <UsbRead>
     628:	d0a6eb0d 	sth	r2,-25684(gp)
					usleep(5*1000);
     62c:	0104e204 	movi	r4,5000
     630:	00104400 	call	10440 <usleep>
					usb_ctl_val = UsbRead(ctl_reg);
     634:	d0a6e70b 	ldhu	r2,-25700(gp)
     638:	10bfffcc 	andi	r2,r2,65535
     63c:	1009883a 	mov	r4,r2
     640:	0001f980 	call	1f98 <UsbRead>
     644:	d0a6eb0d 	sth	r2,-25684(gp)
					usleep(5*1000);
     648:	0104e204 	movi	r4,5000
     64c:	00104400 	call	10440 <usleep>

					if(usb_ctl_val & no_device)
     650:	d0e6eb0b 	ldhu	r3,-25684(gp)
     654:	d0a6e78b 	ldhu	r2,-25698(gp)
     658:	1884703a 	and	r2,r3,r2
     65c:	10bfffcc 	andi	r2,r2,65535
     660:	10000226 	beq	r2,zero,66c <get_keycode+0x2d8>
						return -1;
     664:	00bfffc4 	movi	r2,-1
     668:	00000806 	br	68c <get_keycode+0x2f8>

					usleep(200);
     66c:	01003204 	movi	r4,200
     670:	00104400 	call	10440 <usleep>
						printf("\n[INFO]: the keyboard has been removed!!! \n");
						printf("[INFO]: please insert again!!! \n");
					}
				}

				while (!(usb_ctl_val & no_device))
     674:	d0e6eb0b 	ldhu	r3,-25684(gp)
     678:	d0a6e78b 	ldhu	r2,-25698(gp)
     67c:	1884703a 	and	r2,r3,r2
     680:	10bfffcc 	andi	r2,r2,65535
     684:	103fdd26 	beq	r2,zero,5fc <__alt_data_end+0xfffaaecc>
					if(usb_ctl_val & no_device)
						return -1;

					usleep(200);
				}
				return 0;
     688:	0005883a 	mov	r2,zero
}
     68c:	e037883a 	mov	sp,fp
     690:	dfc00117 	ldw	ra,4(sp)
     694:	df000017 	ldw	fp,0(sp)
     698:	dec00204 	addi	sp,sp,8
     69c:	f800283a 	ret

000006a0 <setup_keyboard>:


void setup_keyboard()
{
     6a0:	defffe04 	addi	sp,sp,-8
     6a4:	dfc00115 	stw	ra,4(sp)
     6a8:	df000015 	stw	fp,0(sp)
     6ac:	d839883a 	mov	fp,sp
	IO_init();
     6b0:	00002680 	call	268 <IO_init>
		usleep(10*10000);
	}*/



	printf("USB keyboard setup...\n\n");
     6b4:	01000074 	movhi	r4,1
     6b8:	21093204 	addi	r4,r4,9416
     6bc:	0003aa40 	call	3aa4 <puts>

	//----------------------------------------SIE1 initial---------------------------------------------------//
	USB_HOT_PLUG:
	UsbSoftReset();
     6c0:	0001fdc0 	call	1fdc <UsbSoftReset>

	// STEP 1a:
	UsbWrite (HPI_SIE1_MSG_ADR, 0);
     6c4:	01005104 	movi	r4,324
     6c8:	000b883a 	mov	r5,zero
     6cc:	0001f440 	call	1f44 <UsbWrite>
	UsbWrite (HOST1_STAT_REG, 0xFFFF);
     6d0:	01302414 	movui	r4,49296
     6d4:	017fffd4 	movui	r5,65535
     6d8:	0001f440 	call	1f44 <UsbWrite>

	/* Set HUSB_pEOT time */
	UsbWrite(HUSB_pEOT, 600); // adjust the according to your USB device speed
     6dc:	01006d04 	movi	r4,436
     6e0:	01409604 	movi	r5,600
     6e4:	0001f440 	call	1f44 <UsbWrite>

	usb_ctl_val = SOFEOP1_TO_CPU_EN | RESUME1_TO_HPI_EN;// | SOFEOP1_TO_HPI_EN;
     6e8:	00811004 	movi	r2,1088
     6ec:	d0a6eb0d 	sth	r2,-25684(gp)
	UsbWrite(HPI_IRQ_ROUTING_REG, usb_ctl_val);
     6f0:	d0a6eb0b 	ldhu	r2,-25684(gp)
     6f4:	10bfffcc 	andi	r2,r2,65535
     6f8:	01005084 	movi	r4,322
     6fc:	100b883a 	mov	r5,r2
     700:	0001f440 	call	1f44 <UsbWrite>

	intStat = A_CHG_IRQ_EN | SOF_EOP_IRQ_EN ;
     704:	00808404 	movi	r2,528
     708:	d0a6ec0d 	sth	r2,-25680(gp)
	UsbWrite(HOST1_IRQ_EN_REG, intStat);
     70c:	d0a6ec0b 	ldhu	r2,-25680(gp)
     710:	10bfffcc 	andi	r2,r2,65535
     714:	01302314 	movui	r4,49292
     718:	100b883a 	mov	r5,r2
     71c:	0001f440 	call	1f44 <UsbWrite>
	// STEP 1a end

	// STEP 1b begin
	UsbWrite(COMM_R0,0x0000);//reset time
     720:	01007104 	movi	r4,452
     724:	000b883a 	mov	r5,zero
     728:	0001f440 	call	1f44 <UsbWrite>
	UsbWrite(COMM_R1,0x0000);  //port number
     72c:	01007184 	movi	r4,454
     730:	000b883a 	mov	r5,zero
     734:	0001f440 	call	1f44 <UsbWrite>
	UsbWrite(COMM_R2,0x0000);  //r1
     738:	01007204 	movi	r4,456
     73c:	000b883a 	mov	r5,zero
     740:	0001f440 	call	1f44 <UsbWrite>
	UsbWrite(COMM_R3,0x0000);  //r1
     744:	01007284 	movi	r4,458
     748:	000b883a 	mov	r5,zero
     74c:	0001f440 	call	1f44 <UsbWrite>
	UsbWrite(COMM_R4,0x0000);  //r1
     750:	01007304 	movi	r4,460
     754:	000b883a 	mov	r5,zero
     758:	0001f440 	call	1f44 <UsbWrite>
	UsbWrite(COMM_R5,0x0000);  //r1
     75c:	01007384 	movi	r4,462
     760:	000b883a 	mov	r5,zero
     764:	0001f440 	call	1f44 <UsbWrite>
	UsbWrite(COMM_R6,0x0000);  //r1
     768:	01007404 	movi	r4,464
     76c:	000b883a 	mov	r5,zero
     770:	0001f440 	call	1f44 <UsbWrite>
	UsbWrite(COMM_R7,0x0000);  //r1
     774:	01007484 	movi	r4,466
     778:	000b883a 	mov	r5,zero
     77c:	0001f440 	call	1f44 <UsbWrite>
	UsbWrite(COMM_R8,0x0000);  //r1
     780:	01007504 	movi	r4,468
     784:	000b883a 	mov	r5,zero
     788:	0001f440 	call	1f44 <UsbWrite>
	UsbWrite(COMM_R9,0x0000);  //r1
     78c:	01007584 	movi	r4,470
     790:	000b883a 	mov	r5,zero
     794:	0001f440 	call	1f44 <UsbWrite>
	UsbWrite(COMM_R10,0x0000);  //r1
     798:	01007604 	movi	r4,472
     79c:	000b883a 	mov	r5,zero
     7a0:	0001f440 	call	1f44 <UsbWrite>
	UsbWrite(COMM_R11,0x0000);  //r1
     7a4:	01007684 	movi	r4,474
     7a8:	000b883a 	mov	r5,zero
     7ac:	0001f440 	call	1f44 <UsbWrite>
	UsbWrite(COMM_R12,0x0000);  //r1
     7b0:	01007704 	movi	r4,476
     7b4:	000b883a 	mov	r5,zero
     7b8:	0001f440 	call	1f44 <UsbWrite>
	UsbWrite(COMM_R13,0x0000);  //r1
     7bc:	01007784 	movi	r4,478
     7c0:	000b883a 	mov	r5,zero
     7c4:	0001f440 	call	1f44 <UsbWrite>
	UsbWrite(COMM_INT_NUM,HUSB_SIE1_INIT_INT); //HUSB_SIE1_INIT_INT
     7c8:	01007084 	movi	r4,450
     7cc:	01401c84 	movi	r5,114
     7d0:	0001f440 	call	1f44 <UsbWrite>
	IO_write(HPI_MAILBOX,COMM_EXEC_INT);
     7d4:	01000044 	movi	r4,1
     7d8:	01738054 	movui	r5,52737
     7dc:	00002c80 	call	2c8 <IO_write>

	while (!(IO_read(HPI_STATUS) & 0xFFFF) )  //read sie1 msg register
     7e0:	0001883a 	nop
     7e4:	010000c4 	movi	r4,3
     7e8:	00003300 	call	330 <IO_read>
     7ec:	10bfffcc 	andi	r2,r2,65535
     7f0:	103ffc26 	beq	r2,zero,7e4 <__alt_data_end+0xfffab0b4>
	{
	}
	while (IO_read(HPI_MAILBOX) != COMM_ACK)
     7f4:	0001883a 	nop
     7f8:	01000044 	movi	r4,1
     7fc:	00003300 	call	330 <IO_read>
     800:	10bfffcc 	andi	r2,r2,65535
     804:	1083fb58 	cmpnei	r2,r2,4077
     808:	10000826 	beq	r2,zero,82c <setup_keyboard+0x18c>
	{
		printf("[ERROR]:routine mailbox data is %x\n",IO_read(HPI_MAILBOX));
     80c:	01000044 	movi	r4,1
     810:	00003300 	call	330 <IO_read>
     814:	10bfffcc 	andi	r2,r2,65535
     818:	01000074 	movhi	r4,1
     81c:	21093804 	addi	r4,r4,9440
     820:	100b883a 	mov	r5,r2
     824:	00039b00 	call	39b0 <printf>
		goto USB_HOT_PLUG;
     828:	003fa506 	br	6c0 <__alt_data_end+0xfffaaf90>
	}
	// STEP 1b end

	printf("STEP 1 Complete");
     82c:	01000074 	movhi	r4,1
     830:	21094104 	addi	r4,r4,9476
     834:	00039b00 	call	39b0 <printf>
	// STEP 2 begin
	UsbWrite(COMM_INT_NUM,HUSB_RESET_INT); //husb reset
     838:	01007084 	movi	r4,450
     83c:	01401d04 	movi	r5,116
     840:	0001f440 	call	1f44 <UsbWrite>
	UsbWrite(COMM_R0,0x003c);//reset time
     844:	01007104 	movi	r4,452
     848:	01400f04 	movi	r5,60
     84c:	0001f440 	call	1f44 <UsbWrite>
	UsbWrite(COMM_R1,0x0000);  //port number
     850:	01007184 	movi	r4,454
     854:	000b883a 	mov	r5,zero
     858:	0001f440 	call	1f44 <UsbWrite>
	UsbWrite(COMM_R2,0x0000);  //r1
     85c:	01007204 	movi	r4,456
     860:	000b883a 	mov	r5,zero
     864:	0001f440 	call	1f44 <UsbWrite>
	UsbWrite(COMM_R3,0x0000);  //r1
     868:	01007284 	movi	r4,458
     86c:	000b883a 	mov	r5,zero
     870:	0001f440 	call	1f44 <UsbWrite>
	UsbWrite(COMM_R4,0x0000);  //r1
     874:	01007304 	movi	r4,460
     878:	000b883a 	mov	r5,zero
     87c:	0001f440 	call	1f44 <UsbWrite>
	UsbWrite(COMM_R5,0x0000);  //r1
     880:	01007384 	movi	r4,462
     884:	000b883a 	mov	r5,zero
     888:	0001f440 	call	1f44 <UsbWrite>
	UsbWrite(COMM_R6,0x0000);  //r1
     88c:	01007404 	movi	r4,464
     890:	000b883a 	mov	r5,zero
     894:	0001f440 	call	1f44 <UsbWrite>
	UsbWrite(COMM_R7,0x0000);  //r1
     898:	01007484 	movi	r4,466
     89c:	000b883a 	mov	r5,zero
     8a0:	0001f440 	call	1f44 <UsbWrite>
	UsbWrite(COMM_R8,0x0000);  //r1
     8a4:	01007504 	movi	r4,468
     8a8:	000b883a 	mov	r5,zero
     8ac:	0001f440 	call	1f44 <UsbWrite>
	UsbWrite(COMM_R9,0x0000);  //r1
     8b0:	01007584 	movi	r4,470
     8b4:	000b883a 	mov	r5,zero
     8b8:	0001f440 	call	1f44 <UsbWrite>
	UsbWrite(COMM_R10,0x0000);  //r1
     8bc:	01007604 	movi	r4,472
     8c0:	000b883a 	mov	r5,zero
     8c4:	0001f440 	call	1f44 <UsbWrite>
	UsbWrite(COMM_R11,0x0000);  //r1
     8c8:	01007684 	movi	r4,474
     8cc:	000b883a 	mov	r5,zero
     8d0:	0001f440 	call	1f44 <UsbWrite>
	UsbWrite(COMM_R12,0x0000);  //r1
     8d4:	01007704 	movi	r4,476
     8d8:	000b883a 	mov	r5,zero
     8dc:	0001f440 	call	1f44 <UsbWrite>
	UsbWrite(COMM_R13,0x0000);  //r1
     8e0:	01007784 	movi	r4,478
     8e4:	000b883a 	mov	r5,zero
     8e8:	0001f440 	call	1f44 <UsbWrite>

	IO_write(HPI_MAILBOX,COMM_EXEC_INT);
     8ec:	01000044 	movi	r4,1
     8f0:	01738054 	movui	r5,52737
     8f4:	00002c80 	call	2c8 <IO_write>

	while (IO_read(HPI_MAILBOX) != COMM_ACK)
     8f8:	0001883a 	nop
     8fc:	01000044 	movi	r4,1
     900:	00003300 	call	330 <IO_read>
     904:	10bfffcc 	andi	r2,r2,65535
     908:	1083fb58 	cmpnei	r2,r2,4077
     90c:	10000826 	beq	r2,zero,930 <setup_keyboard+0x290>
	{
		printf("[ERROR]:routine mailbox data is %x\n",IO_read(HPI_MAILBOX));
     910:	01000044 	movi	r4,1
     914:	00003300 	call	330 <IO_read>
     918:	10bfffcc 	andi	r2,r2,65535
     91c:	01000074 	movhi	r4,1
     920:	21093804 	addi	r4,r4,9440
     924:	100b883a 	mov	r5,r2
     928:	00039b00 	call	39b0 <printf>
		goto USB_HOT_PLUG;
     92c:	003f6406 	br	6c0 <__alt_data_end+0xfffaaf90>
	}
	// STEP 2 end

	ctl_reg = USB1_CTL_REG;
     930:	00b02284 	movi	r2,-16246
     934:	d0a6e70d 	sth	r2,-25700(gp)
	no_device = (A_DP_STAT | A_DM_STAT);
     938:	008c0004 	movi	r2,12288
     93c:	d0a6e78d 	sth	r2,-25698(gp)
	fs_device = A_DP_STAT;
     940:	00880004 	movi	r2,8192
     944:	d0a6e80d 	sth	r2,-25696(gp)
	usb_ctl_val = UsbRead(ctl_reg);
     948:	d0a6e70b 	ldhu	r2,-25700(gp)
     94c:	10bfffcc 	andi	r2,r2,65535
     950:	1009883a 	mov	r4,r2
     954:	0001f980 	call	1f98 <UsbRead>
     958:	d0a6eb0d 	sth	r2,-25684(gp)
		}
	}
	else
	{
		 check for low speed or full speed by reading D+ and D- lines */
		if (usb_ctl_val & fs_device)
     95c:	d0e6eb0b 	ldhu	r3,-25684(gp)
     960:	d0a6e80b 	ldhu	r2,-25696(gp)
     964:	1884703a 	and	r2,r3,r2
     968:	10bfffcc 	andi	r2,r2,65535
     96c:	10000426 	beq	r2,zero,980 <setup_keyboard+0x2e0>
		{
			printf("[INFO]: full speed device\n");
     970:	01000074 	movhi	r4,1
     974:	21094504 	addi	r4,r4,9492
     978:	0003aa40 	call	3aa4 <puts>
     97c:	00000306 	br	98c <setup_keyboard+0x2ec>
		}
		else
		{
			printf("[INFO]: low speed device\n");
     980:	01000074 	movhi	r4,1
     984:	21094c04 	addi	r4,r4,9520
     988:	0003aa40 	call	3aa4 <puts>



	// STEP 3 begin
	//------------------------------------------------------set address -----------------------------------------------------------------
	UsbSetAddress();
     98c:	000208c0 	call	208c <UsbSetAddress>

	while (!(IO_read(HPI_STATUS) & HPI_STATUS_SIE1msg_FLAG) )  //read sie1 msg register
     990:	00000306 	br	9a0 <setup_keyboard+0x300>
	{
		UsbSetAddress();
     994:	000208c0 	call	208c <UsbSetAddress>
		usleep(10*1000);
     998:	0109c404 	movi	r4,10000
     99c:	00104400 	call	10440 <usleep>

	// STEP 3 begin
	//------------------------------------------------------set address -----------------------------------------------------------------
	UsbSetAddress();

	while (!(IO_read(HPI_STATUS) & HPI_STATUS_SIE1msg_FLAG) )  //read sie1 msg register
     9a0:	010000c4 	movi	r4,3
     9a4:	00003300 	call	330 <IO_read>
     9a8:	10bfffcc 	andi	r2,r2,65535
     9ac:	1080040c 	andi	r2,r2,16
     9b0:	103ff826 	beq	r2,zero,994 <__alt_data_end+0xfffab264>
	{
		UsbSetAddress();
		usleep(10*1000);
	}

	UsbWaitTDListDone();
     9b4:	0002f080 	call	2f08 <UsbWaitTDListDone>

	IO_write(HPI_ADDR,0x0506); // i
     9b8:	01000084 	movi	r4,2
     9bc:	01414184 	movi	r5,1286
     9c0:	00002c80 	call	2c8 <IO_write>
	printf("[ENUM PROCESS]:step 3 TD Status Byte is %x\n",IO_read(HPI_DATA));
     9c4:	0009883a 	mov	r4,zero
     9c8:	00003300 	call	330 <IO_read>
     9cc:	10bfffcc 	andi	r2,r2,65535
     9d0:	01000074 	movhi	r4,1
     9d4:	21095304 	addi	r4,r4,9548
     9d8:	100b883a 	mov	r5,r2
     9dc:	00039b00 	call	39b0 <printf>

	IO_write(HPI_ADDR,0x0508); // n
     9e0:	01000084 	movi	r4,2
     9e4:	01414204 	movi	r5,1288
     9e8:	00002c80 	call	2c8 <IO_write>
	usb_ctl_val = IO_read(HPI_DATA);
     9ec:	0009883a 	mov	r4,zero
     9f0:	00003300 	call	330 <IO_read>
     9f4:	d0a6eb0d 	sth	r2,-25684(gp)
	printf("[ENUM PROCESS]:step 3 TD Control Byte is %x\n",usb_ctl_val);
     9f8:	d0a6eb0b 	ldhu	r2,-25684(gp)
     9fc:	10bfffcc 	andi	r2,r2,65535
     a00:	01000074 	movhi	r4,1
     a04:	21095e04 	addi	r4,r4,9592
     a08:	100b883a 	mov	r5,r2
     a0c:	00039b00 	call	39b0 <printf>
	while (usb_ctl_val != 0x03) // retries occurred
     a10:	0001883a 	nop
     a14:	d0a6eb0b 	ldhu	r2,-25684(gp)
     a18:	10bfffcc 	andi	r2,r2,65535
     a1c:	108000d8 	cmpnei	r2,r2,3
     a20:	10000326 	beq	r2,zero,a30 <setup_keyboard+0x390>
	{
		usb_ctl_val = UsbGetRetryCnt();
     a24:	0002f8c0 	call	2f8c <UsbGetRetryCnt>
     a28:	d0a6eb0d 	sth	r2,-25684(gp)

		goto USB_HOT_PLUG;
     a2c:	003f2406 	br	6c0 <__alt_data_end+0xfffaaf90>
	}

	printf("------------[ENUM PROCESS]:set address done!---------------\n");
     a30:	01000074 	movhi	r4,1
     a34:	21096a04 	addi	r4,r4,9640
     a38:	0003aa40 	call	3aa4 <puts>

	// STEP 4 begin
	//-------------------------------get device descriptor-1 -----------------------------------//
	// TASK: Call the appropriate function for this step.
	UsbGetDeviceDesc1(); 	// Get Device Descriptor -1
     a3c:	00021880 	call	2188 <UsbGetDeviceDesc1>

	//usleep(10*1000);
	while (!(IO_read(HPI_STATUS) & HPI_STATUS_SIE1msg_FLAG) )  //read sie1 msg register
     a40:	00000306 	br	a50 <setup_keyboard+0x3b0>
	{
		// TASK: Call the appropriate function again if it wasn't processed successfully.
		UsbGetDeviceDesc1();
     a44:	00021880 	call	2188 <UsbGetDeviceDesc1>
		usleep(10*1000);
     a48:	0109c404 	movi	r4,10000
     a4c:	00104400 	call	10440 <usleep>
	//-------------------------------get device descriptor-1 -----------------------------------//
	// TASK: Call the appropriate function for this step.
	UsbGetDeviceDesc1(); 	// Get Device Descriptor -1

	//usleep(10*1000);
	while (!(IO_read(HPI_STATUS) & HPI_STATUS_SIE1msg_FLAG) )  //read sie1 msg register
     a50:	010000c4 	movi	r4,3
     a54:	00003300 	call	330 <IO_read>
     a58:	10bfffcc 	andi	r2,r2,65535
     a5c:	1080040c 	andi	r2,r2,16
     a60:	103ff826 	beq	r2,zero,a44 <__alt_data_end+0xfffab314>
		// TASK: Call the appropriate function again if it wasn't processed successfully.
		UsbGetDeviceDesc1();
		usleep(10*1000);
	}

	UsbWaitTDListDone();
     a64:	0002f080 	call	2f08 <UsbWaitTDListDone>

	IO_write(HPI_ADDR,0x0506);
     a68:	01000084 	movi	r4,2
     a6c:	01414184 	movi	r5,1286
     a70:	00002c80 	call	2c8 <IO_write>
	printf("[ENUM PROCESS]:step 4 TD Status Byte is %x\n",IO_read(HPI_DATA));
     a74:	0009883a 	mov	r4,zero
     a78:	00003300 	call	330 <IO_read>
     a7c:	10bfffcc 	andi	r2,r2,65535
     a80:	01000074 	movhi	r4,1
     a84:	21097904 	addi	r4,r4,9700
     a88:	100b883a 	mov	r5,r2
     a8c:	00039b00 	call	39b0 <printf>

	IO_write(HPI_ADDR,0x0508);
     a90:	01000084 	movi	r4,2
     a94:	01414204 	movi	r5,1288
     a98:	00002c80 	call	2c8 <IO_write>
	usb_ctl_val = IO_read(HPI_DATA);
     a9c:	0009883a 	mov	r4,zero
     aa0:	00003300 	call	330 <IO_read>
     aa4:	d0a6eb0d 	sth	r2,-25684(gp)
	printf("[ENUM PROCESS]:step 4 TD Control Byte is %x\n",usb_ctl_val);
     aa8:	d0a6eb0b 	ldhu	r2,-25684(gp)
     aac:	10bfffcc 	andi	r2,r2,65535
     ab0:	01000074 	movhi	r4,1
     ab4:	21098404 	addi	r4,r4,9744
     ab8:	100b883a 	mov	r5,r2
     abc:	00039b00 	call	39b0 <printf>
	while (usb_ctl_val != 0x03)
     ac0:	00000206 	br	acc <setup_keyboard+0x42c>
	{
		usb_ctl_val = UsbGetRetryCnt();
     ac4:	0002f8c0 	call	2f8c <UsbGetRetryCnt>
     ac8:	d0a6eb0d 	sth	r2,-25684(gp)
	printf("[ENUM PROCESS]:step 4 TD Status Byte is %x\n",IO_read(HPI_DATA));

	IO_write(HPI_ADDR,0x0508);
	usb_ctl_val = IO_read(HPI_DATA);
	printf("[ENUM PROCESS]:step 4 TD Control Byte is %x\n",usb_ctl_val);
	while (usb_ctl_val != 0x03)
     acc:	d0a6eb0b 	ldhu	r2,-25684(gp)
     ad0:	10bfffcc 	andi	r2,r2,65535
     ad4:	108000d8 	cmpnei	r2,r2,3
     ad8:	103ffa1e 	bne	r2,zero,ac4 <__alt_data_end+0xfffab394>
	{
		usb_ctl_val = UsbGetRetryCnt();
	}

	printf("---------------[ENUM PROCESS]:get device descriptor-1 done!-----------------\n");
     adc:	01000074 	movhi	r4,1
     ae0:	21099004 	addi	r4,r4,9792
     ae4:	0003aa40 	call	3aa4 <puts>


	//--------------------------------get device descriptor-2---------------------------------------------//
	//get device descriptor
	// TASK: Call the appropriate function for this step.
	UsbGetDeviceDesc2(); 	// Get Device Descriptor -2
     ae8:	00022cc0 	call	22cc <UsbGetDeviceDesc2>

	//if no message
	while (!(IO_read(HPI_STATUS) & HPI_STATUS_SIE1msg_FLAG) )  //read sie1 msg register
     aec:	00000306 	br	afc <setup_keyboard+0x45c>
	{
		//resend the get device descriptor
		//get device descriptor
		// TASK: Call the appropriate function again if it wasn't processed successfully.
		UsbGetDeviceDesc2();
     af0:	00022cc0 	call	22cc <UsbGetDeviceDesc2>
		usleep(10*1000);
     af4:	0109c404 	movi	r4,10000
     af8:	00104400 	call	10440 <usleep>
	//get device descriptor
	// TASK: Call the appropriate function for this step.
	UsbGetDeviceDesc2(); 	// Get Device Descriptor -2

	//if no message
	while (!(IO_read(HPI_STATUS) & HPI_STATUS_SIE1msg_FLAG) )  //read sie1 msg register
     afc:	010000c4 	movi	r4,3
     b00:	00003300 	call	330 <IO_read>
     b04:	10bfffcc 	andi	r2,r2,65535
     b08:	1080040c 	andi	r2,r2,16
     b0c:	103ff826 	beq	r2,zero,af0 <__alt_data_end+0xfffab3c0>
		// TASK: Call the appropriate function again if it wasn't processed successfully.
		UsbGetDeviceDesc2();
		usleep(10*1000);
	}

	UsbWaitTDListDone();
     b10:	0002f080 	call	2f08 <UsbWaitTDListDone>

	IO_write(HPI_ADDR,0x0506);
     b14:	01000084 	movi	r4,2
     b18:	01414184 	movi	r5,1286
     b1c:	00002c80 	call	2c8 <IO_write>
	printf("[ENUM PROCESS]:step 4 TD Status Byte is %x\n",IO_read(HPI_DATA));
     b20:	0009883a 	mov	r4,zero
     b24:	00003300 	call	330 <IO_read>
     b28:	10bfffcc 	andi	r2,r2,65535
     b2c:	01000074 	movhi	r4,1
     b30:	21097904 	addi	r4,r4,9700
     b34:	100b883a 	mov	r5,r2
     b38:	00039b00 	call	39b0 <printf>

	IO_write(HPI_ADDR,0x0508);
     b3c:	01000084 	movi	r4,2
     b40:	01414204 	movi	r5,1288
     b44:	00002c80 	call	2c8 <IO_write>
	usb_ctl_val = IO_read(HPI_DATA);
     b48:	0009883a 	mov	r4,zero
     b4c:	00003300 	call	330 <IO_read>
     b50:	d0a6eb0d 	sth	r2,-25684(gp)
	printf("[ENUM PROCESS]:step 4 TD Control Byte is %x\n",usb_ctl_val);
     b54:	d0a6eb0b 	ldhu	r2,-25684(gp)
     b58:	10bfffcc 	andi	r2,r2,65535
     b5c:	01000074 	movhi	r4,1
     b60:	21098404 	addi	r4,r4,9744
     b64:	100b883a 	mov	r5,r2
     b68:	00039b00 	call	39b0 <printf>
	while (usb_ctl_val != 0x03)
     b6c:	00000206 	br	b78 <setup_keyboard+0x4d8>
	{
		usb_ctl_val = UsbGetRetryCnt();
     b70:	0002f8c0 	call	2f8c <UsbGetRetryCnt>
     b74:	d0a6eb0d 	sth	r2,-25684(gp)
	printf("[ENUM PROCESS]:step 4 TD Status Byte is %x\n",IO_read(HPI_DATA));

	IO_write(HPI_ADDR,0x0508);
	usb_ctl_val = IO_read(HPI_DATA);
	printf("[ENUM PROCESS]:step 4 TD Control Byte is %x\n",usb_ctl_val);
	while (usb_ctl_val != 0x03)
     b78:	d0a6eb0b 	ldhu	r2,-25684(gp)
     b7c:	10bfffcc 	andi	r2,r2,65535
     b80:	108000d8 	cmpnei	r2,r2,3
     b84:	103ffa1e 	bne	r2,zero,b70 <__alt_data_end+0xfffab440>
	{
		usb_ctl_val = UsbGetRetryCnt();
	}

	printf("------------[ENUM PROCESS]:get device descriptor-2 done!--------------\n");
     b88:	01000074 	movhi	r4,1
     b8c:	2109a404 	addi	r4,r4,9872
     b90:	0003aa40 	call	3aa4 <puts>


	// STEP 5 begin
	//-----------------------------------get configuration descriptor -1 ----------------------------------//
	// TASK: Call the appropriate function for this step.
	UsbGetConfigDesc1(); 	// Get Configuration Descriptor -1
     b94:	00024a00 	call	24a0 <UsbGetConfigDesc1>

	//if no message
	while (!(IO_read(HPI_STATUS) & HPI_STATUS_SIE1msg_FLAG) )  //read sie1 msg register
     b98:	00000306 	br	ba8 <setup_keyboard+0x508>
	{
		//resend the get device descriptor
		//get device descriptor

		// TASK: Call the appropriate function again if it wasn't processed successfully.
		UsbGetConfigDesc1();
     b9c:	00024a00 	call	24a0 <UsbGetConfigDesc1>
		usleep(10*1000);
     ba0:	0109c404 	movi	r4,10000
     ba4:	00104400 	call	10440 <usleep>
	//-----------------------------------get configuration descriptor -1 ----------------------------------//
	// TASK: Call the appropriate function for this step.
	UsbGetConfigDesc1(); 	// Get Configuration Descriptor -1

	//if no message
	while (!(IO_read(HPI_STATUS) & HPI_STATUS_SIE1msg_FLAG) )  //read sie1 msg register
     ba8:	010000c4 	movi	r4,3
     bac:	00003300 	call	330 <IO_read>
     bb0:	10bfffcc 	andi	r2,r2,65535
     bb4:	1080040c 	andi	r2,r2,16
     bb8:	103ff826 	beq	r2,zero,b9c <__alt_data_end+0xfffab46c>
		// TASK: Call the appropriate function again if it wasn't processed successfully.
		UsbGetConfigDesc1();
		usleep(10*1000);
	}

	UsbWaitTDListDone();
     bbc:	0002f080 	call	2f08 <UsbWaitTDListDone>

	IO_write(HPI_ADDR,0x0506);
     bc0:	01000084 	movi	r4,2
     bc4:	01414184 	movi	r5,1286
     bc8:	00002c80 	call	2c8 <IO_write>
	printf("[ENUM PROCESS]:step 5 TD Status Byte is %x\n",IO_read(HPI_DATA));
     bcc:	0009883a 	mov	r4,zero
     bd0:	00003300 	call	330 <IO_read>
     bd4:	10bfffcc 	andi	r2,r2,65535
     bd8:	01000074 	movhi	r4,1
     bdc:	2109b604 	addi	r4,r4,9944
     be0:	100b883a 	mov	r5,r2
     be4:	00039b00 	call	39b0 <printf>

	IO_write(HPI_ADDR,0x0508);
     be8:	01000084 	movi	r4,2
     bec:	01414204 	movi	r5,1288
     bf0:	00002c80 	call	2c8 <IO_write>
	usb_ctl_val = IO_read(HPI_DATA);
     bf4:	0009883a 	mov	r4,zero
     bf8:	00003300 	call	330 <IO_read>
     bfc:	d0a6eb0d 	sth	r2,-25684(gp)
	printf("[ENUM PROCESS]:step 5 TD Control Byte is %x\n",usb_ctl_val);
     c00:	d0a6eb0b 	ldhu	r2,-25684(gp)
     c04:	10bfffcc 	andi	r2,r2,65535
     c08:	01000074 	movhi	r4,1
     c0c:	2109c104 	addi	r4,r4,9988
     c10:	100b883a 	mov	r5,r2
     c14:	00039b00 	call	39b0 <printf>
	while (usb_ctl_val != 0x03)
     c18:	00000206 	br	c24 <setup_keyboard+0x584>
	{
		usb_ctl_val = UsbGetRetryCnt();
     c1c:	0002f8c0 	call	2f8c <UsbGetRetryCnt>
     c20:	d0a6eb0d 	sth	r2,-25684(gp)
	printf("[ENUM PROCESS]:step 5 TD Status Byte is %x\n",IO_read(HPI_DATA));

	IO_write(HPI_ADDR,0x0508);
	usb_ctl_val = IO_read(HPI_DATA);
	printf("[ENUM PROCESS]:step 5 TD Control Byte is %x\n",usb_ctl_val);
	while (usb_ctl_val != 0x03)
     c24:	d0a6eb0b 	ldhu	r2,-25684(gp)
     c28:	10bfffcc 	andi	r2,r2,65535
     c2c:	108000d8 	cmpnei	r2,r2,3
     c30:	103ffa1e 	bne	r2,zero,c1c <__alt_data_end+0xfffab4ec>
	{
		usb_ctl_val = UsbGetRetryCnt();
	}
	printf("------------[ENUM PROCESS]:get configuration descriptor-1 pass------------\n");
     c34:	01000074 	movhi	r4,1
     c38:	2109cd04 	addi	r4,r4,10036
     c3c:	0003aa40 	call	3aa4 <puts>

	// STEP 6 begin
	//-----------------------------------get configuration descriptor-2------------------------------------//
	//get device descriptor
	// TASK: Call the appropriate function for this step.
	UsbGetConfigDesc2(); 	// Get Configuration Descriptor -2
     c40:	000262c0 	call	262c <UsbGetConfigDesc2>

	usleep(100*1000);
     c44:	010000b4 	movhi	r4,2
     c48:	2121a804 	addi	r4,r4,-31072
     c4c:	00104400 	call	10440 <usleep>
	//if no message
	while (!(IO_read(HPI_STATUS) & HPI_STATUS_SIE1msg_FLAG) )  //read sie1 msg register
     c50:	00000306 	br	c60 <setup_keyboard+0x5c0>
	{
		// TASK: Call the appropriate function again if it wasn't processed successfully.
		UsbGetConfigDesc2();
     c54:	000262c0 	call	262c <UsbGetConfigDesc2>
		usleep(10*1000);
     c58:	0109c404 	movi	r4,10000
     c5c:	00104400 	call	10440 <usleep>
	// TASK: Call the appropriate function for this step.
	UsbGetConfigDesc2(); 	// Get Configuration Descriptor -2

	usleep(100*1000);
	//if no message
	while (!(IO_read(HPI_STATUS) & HPI_STATUS_SIE1msg_FLAG) )  //read sie1 msg register
     c60:	010000c4 	movi	r4,3
     c64:	00003300 	call	330 <IO_read>
     c68:	10bfffcc 	andi	r2,r2,65535
     c6c:	1080040c 	andi	r2,r2,16
     c70:	103ff826 	beq	r2,zero,c54 <__alt_data_end+0xfffab524>
		// TASK: Call the appropriate function again if it wasn't processed successfully.
		UsbGetConfigDesc2();
		usleep(10*1000);
	}

	UsbWaitTDListDone();
     c74:	0002f080 	call	2f08 <UsbWaitTDListDone>

	IO_write(HPI_ADDR,0x0506);
     c78:	01000084 	movi	r4,2
     c7c:	01414184 	movi	r5,1286
     c80:	00002c80 	call	2c8 <IO_write>
	printf("[ENUM PROCESS]:step 6 TD Status Byte is %x\n",IO_read(HPI_DATA));
     c84:	0009883a 	mov	r4,zero
     c88:	00003300 	call	330 <IO_read>
     c8c:	10bfffcc 	andi	r2,r2,65535
     c90:	01000074 	movhi	r4,1
     c94:	2109e004 	addi	r4,r4,10112
     c98:	100b883a 	mov	r5,r2
     c9c:	00039b00 	call	39b0 <printf>

	IO_write(HPI_ADDR,0x0508);
     ca0:	01000084 	movi	r4,2
     ca4:	01414204 	movi	r5,1288
     ca8:	00002c80 	call	2c8 <IO_write>
	usb_ctl_val = IO_read(HPI_DATA);
     cac:	0009883a 	mov	r4,zero
     cb0:	00003300 	call	330 <IO_read>
     cb4:	d0a6eb0d 	sth	r2,-25684(gp)
	printf("[ENUM PROCESS]:step 6 TD Control Byte is %x\n",usb_ctl_val);
     cb8:	d0a6eb0b 	ldhu	r2,-25684(gp)
     cbc:	10bfffcc 	andi	r2,r2,65535
     cc0:	01000074 	movhi	r4,1
     cc4:	2109eb04 	addi	r4,r4,10156
     cc8:	100b883a 	mov	r5,r2
     ccc:	00039b00 	call	39b0 <printf>
	while (usb_ctl_val != 0x03)
     cd0:	00000206 	br	cdc <setup_keyboard+0x63c>
	{
		usb_ctl_val = UsbGetRetryCnt();
     cd4:	0002f8c0 	call	2f8c <UsbGetRetryCnt>
     cd8:	d0a6eb0d 	sth	r2,-25684(gp)
	printf("[ENUM PROCESS]:step 6 TD Status Byte is %x\n",IO_read(HPI_DATA));

	IO_write(HPI_ADDR,0x0508);
	usb_ctl_val = IO_read(HPI_DATA);
	printf("[ENUM PROCESS]:step 6 TD Control Byte is %x\n",usb_ctl_val);
	while (usb_ctl_val != 0x03)
     cdc:	d0a6eb0b 	ldhu	r2,-25684(gp)
     ce0:	10bfffcc 	andi	r2,r2,65535
     ce4:	108000d8 	cmpnei	r2,r2,3
     ce8:	103ffa1e 	bne	r2,zero,cd4 <__alt_data_end+0xfffab5a4>
	{
		usb_ctl_val = UsbGetRetryCnt();
	}


	printf("-----------[ENUM PROCESS]:get configuration descriptor-2 done!------------\n");
     cec:	01000074 	movhi	r4,1
     cf0:	2109f704 	addi	r4,r4,10204
     cf4:	0003aa40 	call	3aa4 <puts>


	// ---------------------------------get device info---------------------------------------------//

	// TASK: Write the address to read from the memory for byte 7 of the interface descriptor to HPI_ADDR.
	IO_write(HPI_ADDR,0x056c);
     cf8:	01000084 	movi	r4,2
     cfc:	01415b04 	movi	r5,1388
     d00:	00002c80 	call	2c8 <IO_write>
	code = IO_read(HPI_DATA);
     d04:	0009883a 	mov	r4,zero
     d08:	00003300 	call	330 <IO_read>
     d0c:	d0a6ed0d 	sth	r2,-25676(gp)
	code = code & 0x003;
     d10:	d0a6ed0b 	ldhu	r2,-25676(gp)
     d14:	108000cc 	andi	r2,r2,3
     d18:	d0a6ed0d 	sth	r2,-25676(gp)
	printf("\ncode = %x\n", code);
     d1c:	d0a6ed0b 	ldhu	r2,-25676(gp)
     d20:	10bfffcc 	andi	r2,r2,65535
     d24:	01000074 	movhi	r4,1
     d28:	210a0a04 	addi	r4,r4,10280
     d2c:	100b883a 	mov	r5,r2
     d30:	00039b00 	call	39b0 <printf>

	if (code == 0x01)
     d34:	d0a6ed0b 	ldhu	r2,-25676(gp)
     d38:	10bfffcc 	andi	r2,r2,65535
     d3c:	10800058 	cmpnei	r2,r2,1
     d40:	1000041e 	bne	r2,zero,d54 <setup_keyboard+0x6b4>
	{
		printf("\n[INFO]:check TD rec data7 \n[INFO]:Keyboard Detected!!!\n\n");
     d44:	01000074 	movhi	r4,1
     d48:	210a0d04 	addi	r4,r4,10292
     d4c:	0003aa40 	call	3aa4 <puts>
     d50:	00000306 	br	d60 <setup_keyboard+0x6c0>
	}
	else
	{
		printf("\n[INFO]:Keyboard Not Detected!!! \n\n");
     d54:	01000074 	movhi	r4,1
     d58:	210a1c04 	addi	r4,r4,10352
     d5c:	0003aa40 	call	3aa4 <puts>
	}

	// TASK: Write the address to read from the memory for the endpoint descriptor to HPI_ADDR.

	IO_write(HPI_ADDR,0x0576);
     d60:	01000084 	movi	r4,2
     d64:	01415d84 	movi	r5,1398
     d68:	00002c80 	call	2c8 <IO_write>
	IO_write(HPI_DATA,0x073F);
     d6c:	0009883a 	mov	r4,zero
     d70:	0141cfc4 	movi	r5,1855
     d74:	00002c80 	call	2c8 <IO_write>
	IO_write(HPI_DATA,0x8105);
     d78:	0009883a 	mov	r4,zero
     d7c:	01604154 	movui	r5,33029
     d80:	00002c80 	call	2c8 <IO_write>
	IO_write(HPI_DATA,0x0003);
     d84:	0009883a 	mov	r4,zero
     d88:	014000c4 	movi	r5,3
     d8c:	00002c80 	call	2c8 <IO_write>
	IO_write(HPI_DATA,0x0008);
     d90:	0009883a 	mov	r4,zero
     d94:	01400204 	movi	r5,8
     d98:	00002c80 	call	2c8 <IO_write>
	IO_write(HPI_DATA,0xAC0A);
     d9c:	0009883a 	mov	r4,zero
     da0:	016b0294 	movui	r5,44042
     da4:	00002c80 	call	2c8 <IO_write>
	UsbWrite(HUSB_SIE1_pCurrentTDPtr,0x0576); //HUSB_SIE1_pCurrentTDPtr
     da8:	01006c04 	movi	r4,432
     dac:	01415d84 	movi	r5,1398
     db0:	0001f440 	call	1f44 <UsbWrite>

	//data_size = (IO_read(HPI_DATA)>>8)&0x0ff;
	//data_size = 0x08;//(IO_read(HPI_DATA))&0x0ff;
	//UsbPrintMem();
	IO_write(HPI_ADDR,0x057c);
     db4:	01000084 	movi	r4,2
     db8:	01415f04 	movi	r5,1404
     dbc:	00002c80 	call	2c8 <IO_write>
	data_size = (IO_read(HPI_DATA))&0x0ff;
     dc0:	0009883a 	mov	r4,zero
     dc4:	00003300 	call	330 <IO_read>
     dc8:	d0a6eb85 	stb	r2,-25682(gp)
	printf("[ENUM PROCESS]:data packet size is %d\n",data_size);
     dcc:	d0a6eb83 	ldbu	r2,-25682(gp)
     dd0:	10803fcc 	andi	r2,r2,255
     dd4:	01000074 	movhi	r4,1
     dd8:	210a2504 	addi	r4,r4,10388
     ddc:	100b883a 	mov	r5,r2
     de0:	00039b00 	call	39b0 <printf>
	// STEP 7 begin
	//------------------------------------set configuration -----------------------------------------//
	// TASK: Call the appropriate function for this step.
	UsbSetConfig();		// Set Configuration
     de4:	00028900 	call	2890 <UsbSetConfig>

	while (!(IO_read(HPI_STATUS) & HPI_STATUS_SIE1msg_FLAG) )  //read sie1 msg register
     de8:	00000306 	br	df8 <setup_keyboard+0x758>
	{
		// TASK: Call the appropriate function again if it wasn't processed successfully.
		UsbSetConfig();		// Set Configuration
     dec:	00028900 	call	2890 <UsbSetConfig>
		usleep(10*1000);
     df0:	0109c404 	movi	r4,10000
     df4:	00104400 	call	10440 <usleep>
	// STEP 7 begin
	//------------------------------------set configuration -----------------------------------------//
	// TASK: Call the appropriate function for this step.
	UsbSetConfig();		// Set Configuration

	while (!(IO_read(HPI_STATUS) & HPI_STATUS_SIE1msg_FLAG) )  //read sie1 msg register
     df8:	010000c4 	movi	r4,3
     dfc:	00003300 	call	330 <IO_read>
     e00:	10bfffcc 	andi	r2,r2,65535
     e04:	1080040c 	andi	r2,r2,16
     e08:	103ff826 	beq	r2,zero,dec <__alt_data_end+0xfffab6bc>
		// TASK: Call the appropriate function again if it wasn't processed successfully.
		UsbSetConfig();		// Set Configuration
		usleep(10*1000);
	}

	UsbWaitTDListDone();
     e0c:	0002f080 	call	2f08 <UsbWaitTDListDone>

	IO_write(HPI_ADDR,0x0506);
     e10:	01000084 	movi	r4,2
     e14:	01414184 	movi	r5,1286
     e18:	00002c80 	call	2c8 <IO_write>
	printf("[ENUM PROCESS]:step 7 TD Status Byte is %x\n",IO_read(HPI_DATA));
     e1c:	0009883a 	mov	r4,zero
     e20:	00003300 	call	330 <IO_read>
     e24:	10bfffcc 	andi	r2,r2,65535
     e28:	01000074 	movhi	r4,1
     e2c:	210a2f04 	addi	r4,r4,10428
     e30:	100b883a 	mov	r5,r2
     e34:	00039b00 	call	39b0 <printf>

	IO_write(HPI_ADDR,0x0508);
     e38:	01000084 	movi	r4,2
     e3c:	01414204 	movi	r5,1288
     e40:	00002c80 	call	2c8 <IO_write>
	usb_ctl_val = IO_read(HPI_DATA);
     e44:	0009883a 	mov	r4,zero
     e48:	00003300 	call	330 <IO_read>
     e4c:	d0a6eb0d 	sth	r2,-25684(gp)
	printf("[ENUM PROCESS]:step 7 TD Control Byte is %x\n",usb_ctl_val);
     e50:	d0a6eb0b 	ldhu	r2,-25684(gp)
     e54:	10bfffcc 	andi	r2,r2,65535
     e58:	01000074 	movhi	r4,1
     e5c:	210a3a04 	addi	r4,r4,10472
     e60:	100b883a 	mov	r5,r2
     e64:	00039b00 	call	39b0 <printf>
	while (usb_ctl_val != 0x03)
     e68:	00000206 	br	e74 <setup_keyboard+0x7d4>
	{
		usb_ctl_val = UsbGetRetryCnt();
     e6c:	0002f8c0 	call	2f8c <UsbGetRetryCnt>
     e70:	d0a6eb0d 	sth	r2,-25684(gp)
	printf("[ENUM PROCESS]:step 7 TD Status Byte is %x\n",IO_read(HPI_DATA));

	IO_write(HPI_ADDR,0x0508);
	usb_ctl_val = IO_read(HPI_DATA);
	printf("[ENUM PROCESS]:step 7 TD Control Byte is %x\n",usb_ctl_val);
	while (usb_ctl_val != 0x03)
     e74:	d0a6eb0b 	ldhu	r2,-25684(gp)
     e78:	10bfffcc 	andi	r2,r2,65535
     e7c:	108000d8 	cmpnei	r2,r2,3
     e80:	103ffa1e 	bne	r2,zero,e6c <__alt_data_end+0xfffab73c>
	{
		usb_ctl_val = UsbGetRetryCnt();
	}

	printf("------------[ENUM PROCESS]:set configuration done!-------------------\n");
     e84:	01000074 	movhi	r4,1
     e88:	210a4604 	addi	r4,r4,10520
     e8c:	0003aa40 	call	3aa4 <puts>

	//----------------------------------------------class request out ------------------------------------------//
	// TASK: Call the appropriate function for this step.
	UsbClassRequest();
     e90:	000298c0 	call	298c <UsbClassRequest>

	while (!(IO_read(HPI_STATUS) & HPI_STATUS_SIE1msg_FLAG) )  //read sie1 msg register
     e94:	00000306 	br	ea4 <setup_keyboard+0x804>
	{
		// TASK: Call the appropriate function again if it wasn't processed successfully.
		UsbClassRequest();
     e98:	000298c0 	call	298c <UsbClassRequest>
		usleep(10*1000);
     e9c:	0109c404 	movi	r4,10000
     ea0:	00104400 	call	10440 <usleep>

	//----------------------------------------------class request out ------------------------------------------//
	// TASK: Call the appropriate function for this step.
	UsbClassRequest();

	while (!(IO_read(HPI_STATUS) & HPI_STATUS_SIE1msg_FLAG) )  //read sie1 msg register
     ea4:	010000c4 	movi	r4,3
     ea8:	00003300 	call	330 <IO_read>
     eac:	10bfffcc 	andi	r2,r2,65535
     eb0:	1080040c 	andi	r2,r2,16
     eb4:	103ff826 	beq	r2,zero,e98 <__alt_data_end+0xfffab768>
		// TASK: Call the appropriate function again if it wasn't processed successfully.
		UsbClassRequest();
		usleep(10*1000);
	}

	UsbWaitTDListDone();
     eb8:	0002f080 	call	2f08 <UsbWaitTDListDone>

	IO_write(HPI_ADDR,0x0506);
     ebc:	01000084 	movi	r4,2
     ec0:	01414184 	movi	r5,1286
     ec4:	00002c80 	call	2c8 <IO_write>
	printf("[ENUM PROCESS]:step 8 TD Status Byte is %x\n",IO_read(HPI_DATA));
     ec8:	0009883a 	mov	r4,zero
     ecc:	00003300 	call	330 <IO_read>
     ed0:	10bfffcc 	andi	r2,r2,65535
     ed4:	01000074 	movhi	r4,1
     ed8:	210a5804 	addi	r4,r4,10592
     edc:	100b883a 	mov	r5,r2
     ee0:	00039b00 	call	39b0 <printf>

	IO_write(HPI_ADDR,0x0508);
     ee4:	01000084 	movi	r4,2
     ee8:	01414204 	movi	r5,1288
     eec:	00002c80 	call	2c8 <IO_write>
	usb_ctl_val = IO_read(HPI_DATA);
     ef0:	0009883a 	mov	r4,zero
     ef4:	00003300 	call	330 <IO_read>
     ef8:	d0a6eb0d 	sth	r2,-25684(gp)
	printf("[ENUM PROCESS]:step 8 TD Control Byte is %x\n",usb_ctl_val);
     efc:	d0a6eb0b 	ldhu	r2,-25684(gp)
     f00:	10bfffcc 	andi	r2,r2,65535
     f04:	01000074 	movhi	r4,1
     f08:	210a6304 	addi	r4,r4,10636
     f0c:	100b883a 	mov	r5,r2
     f10:	00039b00 	call	39b0 <printf>
	while (usb_ctl_val != 0x03)
     f14:	00000206 	br	f20 <setup_keyboard+0x880>
	{
		usb_ctl_val = UsbGetRetryCnt();
     f18:	0002f8c0 	call	2f8c <UsbGetRetryCnt>
     f1c:	d0a6eb0d 	sth	r2,-25684(gp)
	printf("[ENUM PROCESS]:step 8 TD Status Byte is %x\n",IO_read(HPI_DATA));

	IO_write(HPI_ADDR,0x0508);
	usb_ctl_val = IO_read(HPI_DATA);
	printf("[ENUM PROCESS]:step 8 TD Control Byte is %x\n",usb_ctl_val);
	while (usb_ctl_val != 0x03)
     f20:	d0a6eb0b 	ldhu	r2,-25684(gp)
     f24:	10bfffcc 	andi	r2,r2,65535
     f28:	108000d8 	cmpnei	r2,r2,3
     f2c:	103ffa1e 	bne	r2,zero,f18 <__alt_data_end+0xfffab7e8>
	{
		usb_ctl_val = UsbGetRetryCnt();
	}


	printf("------------[ENUM PROCESS]:class request out done!-------------------\n");
     f30:	01000074 	movhi	r4,1
     f34:	210a6f04 	addi	r4,r4,10684
     f38:	0003aa40 	call	3aa4 <puts>

	// STEP 8 begin
	//----------------------------------get descriptor(class 0x21 = HID) request out --------------------------------//
	// TASK: Call the appropriate function for this step.
	UsbGetHidDesc();
     f3c:	0002a880 	call	2a88 <UsbGetHidDesc>

	while (!(IO_read(HPI_STATUS) & HPI_STATUS_SIE1msg_FLAG) )  //read sie1 msg register
     f40:	00000306 	br	f50 <setup_keyboard+0x8b0>
	{
		// TASK: Call the appropriate function again if it wasn't processed successfully.
		UsbGetHidDesc();
     f44:	0002a880 	call	2a88 <UsbGetHidDesc>
		usleep(10*1000);
     f48:	0109c404 	movi	r4,10000
     f4c:	00104400 	call	10440 <usleep>
	// STEP 8 begin
	//----------------------------------get descriptor(class 0x21 = HID) request out --------------------------------//
	// TASK: Call the appropriate function for this step.
	UsbGetHidDesc();

	while (!(IO_read(HPI_STATUS) & HPI_STATUS_SIE1msg_FLAG) )  //read sie1 msg register
     f50:	010000c4 	movi	r4,3
     f54:	00003300 	call	330 <IO_read>
     f58:	10bfffcc 	andi	r2,r2,65535
     f5c:	1080040c 	andi	r2,r2,16
     f60:	103ff826 	beq	r2,zero,f44 <__alt_data_end+0xfffab814>
		// TASK: Call the appropriate function again if it wasn't processed successfully.
		UsbGetHidDesc();
		usleep(10*1000);
	}

	UsbWaitTDListDone();
     f64:	0002f080 	call	2f08 <UsbWaitTDListDone>

	IO_write(HPI_ADDR,0x0506);
     f68:	01000084 	movi	r4,2
     f6c:	01414184 	movi	r5,1286
     f70:	00002c80 	call	2c8 <IO_write>
	printf("[ENUM PROCESS]:step 8 TD Status Byte is %x\n",IO_read(HPI_DATA));
     f74:	0009883a 	mov	r4,zero
     f78:	00003300 	call	330 <IO_read>
     f7c:	10bfffcc 	andi	r2,r2,65535
     f80:	01000074 	movhi	r4,1
     f84:	210a5804 	addi	r4,r4,10592
     f88:	100b883a 	mov	r5,r2
     f8c:	00039b00 	call	39b0 <printf>

	IO_write(HPI_ADDR,0x0508);
     f90:	01000084 	movi	r4,2
     f94:	01414204 	movi	r5,1288
     f98:	00002c80 	call	2c8 <IO_write>
	usb_ctl_val = IO_read(HPI_DATA);
     f9c:	0009883a 	mov	r4,zero
     fa0:	00003300 	call	330 <IO_read>
     fa4:	d0a6eb0d 	sth	r2,-25684(gp)
	printf("[ENUM PROCESS]:step 8 TD Control Byte is %x\n",usb_ctl_val);
     fa8:	d0a6eb0b 	ldhu	r2,-25684(gp)
     fac:	10bfffcc 	andi	r2,r2,65535
     fb0:	01000074 	movhi	r4,1
     fb4:	210a6304 	addi	r4,r4,10636
     fb8:	100b883a 	mov	r5,r2
     fbc:	00039b00 	call	39b0 <printf>
	while (usb_ctl_val != 0x03)
     fc0:	00000206 	br	fcc <setup_keyboard+0x92c>
	{
		usb_ctl_val = UsbGetRetryCnt();
     fc4:	0002f8c0 	call	2f8c <UsbGetRetryCnt>
     fc8:	d0a6eb0d 	sth	r2,-25684(gp)
	printf("[ENUM PROCESS]:step 8 TD Status Byte is %x\n",IO_read(HPI_DATA));

	IO_write(HPI_ADDR,0x0508);
	usb_ctl_val = IO_read(HPI_DATA);
	printf("[ENUM PROCESS]:step 8 TD Control Byte is %x\n",usb_ctl_val);
	while (usb_ctl_val != 0x03)
     fcc:	d0a6eb0b 	ldhu	r2,-25684(gp)
     fd0:	10bfffcc 	andi	r2,r2,65535
     fd4:	108000d8 	cmpnei	r2,r2,3
     fd8:	103ffa1e 	bne	r2,zero,fc4 <__alt_data_end+0xfffab894>
	{
		usb_ctl_val = UsbGetRetryCnt();
	}

	printf("------------[ENUM PROCESS]:get descriptor (class 0x21) done!-------------------\n");
     fdc:	01000074 	movhi	r4,1
     fe0:	210a8104 	addi	r4,r4,10756
     fe4:	0003aa40 	call	3aa4 <puts>

	// STEP 9 begin
	//-------------------------------get descriptor (class 0x22 = report)-------------------------------------------//
	// TASK: Call the appropriate function for this step.
	UsbGetReportDesc();
     fe8:	0002bcc0 	call	2bcc <UsbGetReportDesc>
	//if no message
	while (!(IO_read(HPI_STATUS) & HPI_STATUS_SIE1msg_FLAG) )  //read sie1 msg register
     fec:	00000306 	br	ffc <setup_keyboard+0x95c>
	{
		// TASK: Call the appropriate function again if it wasn't processed successfully.
		UsbGetReportDesc();
     ff0:	0002bcc0 	call	2bcc <UsbGetReportDesc>
		usleep(10*1000);
     ff4:	0109c404 	movi	r4,10000
     ff8:	00104400 	call	10440 <usleep>
	// STEP 9 begin
	//-------------------------------get descriptor (class 0x22 = report)-------------------------------------------//
	// TASK: Call the appropriate function for this step.
	UsbGetReportDesc();
	//if no message
	while (!(IO_read(HPI_STATUS) & HPI_STATUS_SIE1msg_FLAG) )  //read sie1 msg register
     ffc:	010000c4 	movi	r4,3
    1000:	00003300 	call	330 <IO_read>
    1004:	10bfffcc 	andi	r2,r2,65535
    1008:	1080040c 	andi	r2,r2,16
    100c:	103ff826 	beq	r2,zero,ff0 <__alt_data_end+0xfffab8c0>
		// TASK: Call the appropriate function again if it wasn't processed successfully.
		UsbGetReportDesc();
		usleep(10*1000);
	}

	UsbWaitTDListDone();
    1010:	0002f080 	call	2f08 <UsbWaitTDListDone>

	IO_write(HPI_ADDR,0x0506);
    1014:	01000084 	movi	r4,2
    1018:	01414184 	movi	r5,1286
    101c:	00002c80 	call	2c8 <IO_write>
	printf("[ENUM PROCESS]: step 9 TD Status Byte is %x\n",IO_read(HPI_DATA));
    1020:	0009883a 	mov	r4,zero
    1024:	00003300 	call	330 <IO_read>
    1028:	10bfffcc 	andi	r2,r2,65535
    102c:	01000074 	movhi	r4,1
    1030:	210a9504 	addi	r4,r4,10836
    1034:	100b883a 	mov	r5,r2
    1038:	00039b00 	call	39b0 <printf>

	IO_write(HPI_ADDR,0x0508);
    103c:	01000084 	movi	r4,2
    1040:	01414204 	movi	r5,1288
    1044:	00002c80 	call	2c8 <IO_write>
	usb_ctl_val = IO_read(HPI_DATA);
    1048:	0009883a 	mov	r4,zero
    104c:	00003300 	call	330 <IO_read>
    1050:	d0a6eb0d 	sth	r2,-25684(gp)
	printf("[ENUM PROCESS]: step 9 TD Control Byte is %x\n",usb_ctl_val);
    1054:	d0a6eb0b 	ldhu	r2,-25684(gp)
    1058:	10bfffcc 	andi	r2,r2,65535
    105c:	01000074 	movhi	r4,1
    1060:	210aa104 	addi	r4,r4,10884
    1064:	100b883a 	mov	r5,r2
    1068:	00039b00 	call	39b0 <printf>
	while (usb_ctl_val != 0x03)
    106c:	00000206 	br	1078 <setup_keyboard+0x9d8>
	{
		usb_ctl_val = UsbGetRetryCnt();
    1070:	0002f8c0 	call	2f8c <UsbGetRetryCnt>
    1074:	d0a6eb0d 	sth	r2,-25684(gp)
	printf("[ENUM PROCESS]: step 9 TD Status Byte is %x\n",IO_read(HPI_DATA));

	IO_write(HPI_ADDR,0x0508);
	usb_ctl_val = IO_read(HPI_DATA);
	printf("[ENUM PROCESS]: step 9 TD Control Byte is %x\n",usb_ctl_val);
	while (usb_ctl_val != 0x03)
    1078:	d0a6eb0b 	ldhu	r2,-25684(gp)
    107c:	10bfffcc 	andi	r2,r2,65535
    1080:	108000d8 	cmpnei	r2,r2,3
    1084:	103ffa1e 	bne	r2,zero,1070 <__alt_data_end+0xfffab940>
	{
		usb_ctl_val = UsbGetRetryCnt();
	}

	printf("---------------[ENUM PROCESS]:get descriptor (class 0x22) done!----------------\n");
    1088:	01000074 	movhi	r4,1
    108c:	210aad04 	addi	r4,r4,10932
    1090:	0003aa40 	call	3aa4 <puts>


	//-----------------------------------get keycode value------------------------------------------------//


	return;
    1094:	0001883a 	nop
}
    1098:	e037883a 	mov	sp,fp
    109c:	dfc00117 	ldw	ra,4(sp)
    10a0:	df000017 	ldw	fp,0(sp)
    10a4:	dec00204 	addi	sp,sp,8
    10a8:	f800283a 	ret

000010ac <main>:
void parse_keycode(unsigned int *arr,unsigned int keycode1,unsigned int keycode2);

//Hits
void check_projectiles();

int main(void){
    10ac:	defff104 	addi	sp,sp,-60
    10b0:	dfc00e15 	stw	ra,56(sp)
    10b4:	df000d15 	stw	fp,52(sp)
    10b8:	df000d04 	addi	fp,sp,52
	setup_keyboard();
    10bc:	00006a00 	call	6a0 <setup_keyboard>
	unsigned int keycode1,keycode2;
	player *first=(player *)malloc(sizeof(player));
    10c0:	01000604 	movi	r4,24
    10c4:	00031b40 	call	31b4 <malloc>
    10c8:	e0bff615 	stw	r2,-40(fp)
	player *second=(player *)malloc(sizeof(player));
    10cc:	01000604 	movi	r4,24
    10d0:	00031b40 	call	31b4 <malloc>
    10d4:	e0bff715 	stw	r2,-36(fp)
	int i=0;
    10d8:	e03ff415 	stw	zero,-48(fp)
	int num_of_enemies=0;
    10dc:	e03ff515 	stw	zero,-44(fp)
	enemy *head_enemies=NULL;
    10e0:	e03ffa15 	stw	zero,-24(fp)
	player_projectile *head_bullets=NULL;
    10e4:	e03ffb15 	stw	zero,-20(fp)
	init_players(first,second);
    10e8:	e13ff617 	ldw	r4,-40(fp)
    10ec:	e17ff717 	ldw	r5,-36(fp)
    10f0:	00011e80 	call	11e8 <init_players>
	render_players(first,second);
    10f4:	e13ff617 	ldw	r4,-40(fp)
    10f8:	e17ff717 	ldw	r5,-36(fp)
    10fc:	000187c0 	call	187c <render_players>
	unsigned int arr[4]={0,0,0,0};
    1100:	e03ffc15 	stw	zero,-16(fp)
    1104:	e03ffd15 	stw	zero,-12(fp)
    1108:	e03ffe15 	stw	zero,-8(fp)
    110c:	e03fff15 	stw	zero,-4(fp)
	while(1)
		{
			//move_projectiles(head_bullets);
			//render_projectiles(head_bullets);
			if(get_keycode(&keycode1,&keycode2)==0){
    1110:	e0fff804 	addi	r3,fp,-32
    1114:	e0bff904 	addi	r2,fp,-28
    1118:	1809883a 	mov	r4,r3
    111c:	100b883a 	mov	r5,r2
    1120:	00003940 	call	394 <get_keycode>
    1124:	1000181e 	bne	r2,zero,1188 <main+0xdc>
				parse_keycode(arr,keycode1,keycode2);
    1128:	e0fff817 	ldw	r3,-32(fp)
    112c:	e0bff917 	ldw	r2,-28(fp)
    1130:	e13ffc04 	addi	r4,fp,-16
    1134:	180b883a 	mov	r5,r3
    1138:	100d883a 	mov	r6,r2
    113c:	0001bb80 	call	1bb8 <parse_keycode>
				if(keycode_effect(first,second,arr,&head_bullets,i%30)==1){
    1140:	e0bff417 	ldw	r2,-48(fp)
    1144:	1009883a 	mov	r4,r2
    1148:	01400784 	movi	r5,30
    114c:	00031480 	call	3148 <__modsi3>
    1150:	1009883a 	mov	r4,r2
    1154:	e0fffc04 	addi	r3,fp,-16
    1158:	e0bffb04 	addi	r2,fp,-20
    115c:	d9000015 	stw	r4,0(sp)
    1160:	e13ff617 	ldw	r4,-40(fp)
    1164:	e17ff717 	ldw	r5,-36(fp)
    1168:	180d883a 	mov	r6,r3
    116c:	100f883a 	mov	r7,r2
    1170:	00019980 	call	1998 <keycode_effect>
    1174:	10800058 	cmpnei	r2,r2,1
    1178:	1000031e 	bne	r2,zero,1188 <main+0xdc>
				render_players(first,second);
    117c:	e13ff617 	ldw	r4,-40(fp)
    1180:	e17ff717 	ldw	r5,-36(fp)
    1184:	000187c0 	call	187c <render_players>
				}
			}
			if(num_of_enemies<3){
    1188:	e0bff517 	ldw	r2,-44(fp)
    118c:	108000c8 	cmpgei	r2,r2,3
    1190:	1000031e 	bne	r2,zero,11a0 <main+0xf4>
				make_enemy(&head_enemies);
    1194:	e0bffa04 	addi	r2,fp,-24
    1198:	1009883a 	mov	r4,r2
    119c:	00012c00 	call	12c0 <make_enemy>
			}
			render_enemies(head_enemies);
    11a0:	e0bffa17 	ldw	r2,-24(fp)
    11a4:	1009883a 	mov	r4,r2
    11a8:	00015340 	call	1534 <render_enemies>
			move_enemies(head_enemies);
    11ac:	e0bffa17 	ldw	r2,-24(fp)
    11b0:	1009883a 	mov	r4,r2
    11b4:	00014b00 	call	14b0 <move_enemies>
			head_enemies=(enemy *)delete_enemy(head_enemies);
    11b8:	e0bffa17 	ldw	r2,-24(fp)
    11bc:	1009883a 	mov	r4,r2
    11c0:	00013800 	call	1380 <delete_enemy>
    11c4:	e0bffa15 	stw	r2,-24(fp)
			num_of_enemies=count_enemies(head_enemies);
    11c8:	e0bffa17 	ldw	r2,-24(fp)
    11cc:	1009883a 	mov	r4,r2
    11d0:	000145c0 	call	145c <count_enemies>
    11d4:	e0bff515 	stw	r2,-44(fp)
			i++;
    11d8:	e0bff417 	ldw	r2,-48(fp)
    11dc:	10800044 	addi	r2,r2,1
    11e0:	e0bff415 	stw	r2,-48(fp)
		}
    11e4:	003fca06 	br	1110 <__alt_data_end+0xfffab9e0>

000011e8 <init_players>:
				 {116,137},
				 {105,63},
				 {89,75},
				 {23,32}};			//bullets

void init_players(player *first,player *second){
    11e8:	defffc04 	addi	sp,sp,-16
    11ec:	dfc00315 	stw	ra,12(sp)
    11f0:	df000215 	stw	fp,8(sp)
    11f4:	df000204 	addi	fp,sp,8
    11f8:	e13ffe15 	stw	r4,-8(fp)
    11fc:	e17fff15 	stw	r5,-4(fp)
	if(first==NULL || second ==NULL)
    1200:	e0bffe17 	ldw	r2,-8(fp)
    1204:	10000226 	beq	r2,zero,1210 <init_players+0x28>
    1208:	e0bfff17 	ldw	r2,-4(fp)
    120c:	1000041e 	bne	r2,zero,1220 <init_players+0x38>
	{
		printf("players not instantiated");
    1210:	01000074 	movhi	r4,1
    1214:	210ac104 	addi	r4,r4,11012
    1218:	00039b00 	call	39b0 <printf>
    121c:	00002306 	br	12ac <init_players+0xc4>
	}
	else{
		first->x_pos = 300,
    1220:	e0bffe17 	ldw	r2,-8(fp)
    1224:	00c04b04 	movi	r3,300
    1228:	10c00015 	stw	r3,0(r2)
		first->y_pos = y_bounds - sizes[player1_sprite][1];
    122c:	00800074 	movhi	r2,1
    1230:	108bb004 	addi	r2,r2,11968
    1234:	10800117 	ldw	r2,4(r2)
    1238:	00c077c4 	movi	r3,479
    123c:	1887c83a 	sub	r3,r3,r2
    1240:	e0bffe17 	ldw	r2,-8(fp)
    1244:	10c00115 	stw	r3,4(r2)
		first->health = 3;
    1248:	e0bffe17 	ldw	r2,-8(fp)
    124c:	00c000c4 	movi	r3,3
    1250:	10c00215 	stw	r3,8(r2)
		first->id=player1_sprite;
    1254:	e0bffe17 	ldw	r2,-8(fp)
    1258:	10000315 	stw	zero,12(r2)
		first->old_x =first->x_pos;
    125c:	e0bffe17 	ldw	r2,-8(fp)
    1260:	10c00017 	ldw	r3,0(r2)
    1264:	e0bffe17 	ldw	r2,-8(fp)
    1268:	10c00415 	stw	r3,16(r2)
		second->x_pos= 200;
    126c:	e0bfff17 	ldw	r2,-4(fp)
    1270:	00c03204 	movi	r3,200
    1274:	10c00015 	stw	r3,0(r2)
		second->y_pos= y_bounds - sizes[player2_sprite][1];
    1278:	00800074 	movhi	r2,1
    127c:	108bb004 	addi	r2,r2,11968
    1280:	10800317 	ldw	r2,12(r2)
    1284:	00c077c4 	movi	r3,479
    1288:	1887c83a 	sub	r3,r3,r2
    128c:	e0bfff17 	ldw	r2,-4(fp)
    1290:	10c00115 	stw	r3,4(r2)
		second->health=3;
    1294:	e0bfff17 	ldw	r2,-4(fp)
    1298:	00c000c4 	movi	r3,3
    129c:	10c00215 	stw	r3,8(r2)
		second->id = player2_sprite;
    12a0:	e0bfff17 	ldw	r2,-4(fp)
    12a4:	00c00044 	movi	r3,1
    12a8:	10c00315 	stw	r3,12(r2)
	}
}
    12ac:	e037883a 	mov	sp,fp
    12b0:	dfc00117 	ldw	ra,4(sp)
    12b4:	df000017 	ldw	fp,0(sp)
    12b8:	dec00204 	addi	sp,sp,8
    12bc:	f800283a 	ret

000012c0 <make_enemy>:

void make_enemy(enemy **em){
    12c0:	defffc04 	addi	sp,sp,-16
    12c4:	dfc00315 	stw	ra,12(sp)
    12c8:	df000215 	stw	fp,8(sp)
    12cc:	df000204 	addi	fp,sp,8
    12d0:	e13fff15 	stw	r4,-4(fp)
	enemy *generated=(enemy *)malloc(sizeof(enemy));
    12d4:	01000704 	movi	r4,28
    12d8:	00031b40 	call	31b4 <malloc>
    12dc:	e0bffe15 	stw	r2,-8(fp)
	generated->x_pos=rand()%500;
    12e0:	0003ad00 	call	3ad0 <rand>
    12e4:	1009883a 	mov	r4,r2
    12e8:	01407d04 	movi	r5,500
    12ec:	00031480 	call	3148 <__modsi3>
    12f0:	1007883a 	mov	r3,r2
    12f4:	e0bffe17 	ldw	r2,-8(fp)
    12f8:	10c00015 	stw	r3,0(r2)
	generated->y_pos=rand()%300;
    12fc:	0003ad00 	call	3ad0 <rand>
    1300:	1009883a 	mov	r4,r2
    1304:	01404b04 	movi	r5,300
    1308:	00031480 	call	3148 <__modsi3>
    130c:	1007883a 	mov	r3,r2
    1310:	e0bffe17 	ldw	r2,-8(fp)
    1314:	10c00115 	stw	r3,4(r2)
	generated->old_x=generated->x_pos;
    1318:	e0bffe17 	ldw	r2,-8(fp)
    131c:	10c00017 	ldw	r3,0(r2)
    1320:	e0bffe17 	ldw	r2,-8(fp)
    1324:	10c00415 	stw	r3,16(r2)
	generated->old_y=generated->y_pos;
    1328:	e0bffe17 	ldw	r2,-8(fp)
    132c:	10c00117 	ldw	r3,4(r2)
    1330:	e0bffe17 	ldw	r2,-8(fp)
    1334:	10c00515 	stw	r3,20(r2)
	generated->health = 2;
    1338:	e0bffe17 	ldw	r2,-8(fp)
    133c:	00c00084 	movi	r3,2
    1340:	10c00215 	stw	r3,8(r2)
	generated->id=9;
    1344:	e0bffe17 	ldw	r2,-8(fp)
    1348:	00c00244 	movi	r3,9
    134c:	10c00315 	stw	r3,12(r2)
	generated->next = *em;
    1350:	e0bfff17 	ldw	r2,-4(fp)
    1354:	10c00017 	ldw	r3,0(r2)
    1358:	e0bffe17 	ldw	r2,-8(fp)
    135c:	10c00615 	stw	r3,24(r2)
	*em = generated;
    1360:	e0bfff17 	ldw	r2,-4(fp)
    1364:	e0fffe17 	ldw	r3,-8(fp)
    1368:	10c00015 	stw	r3,0(r2)
}
    136c:	e037883a 	mov	sp,fp
    1370:	dfc00117 	ldw	ra,4(sp)
    1374:	df000017 	ldw	fp,0(sp)
    1378:	dec00204 	addi	sp,sp,8
    137c:	f800283a 	ret

00001380 <delete_enemy>:

enemy * delete_enemy(enemy *curr)
{
    1380:	defffc04 	addi	sp,sp,-16
    1384:	dfc00315 	stw	ra,12(sp)
    1388:	df000215 	stw	fp,8(sp)
    138c:	df000204 	addi	fp,sp,8
    1390:	e13fff15 	stw	r4,-4(fp)
  if (curr == NULL)
    1394:	e0bfff17 	ldw	r2,-4(fp)
    1398:	1000021e 	bne	r2,zero,13a4 <delete_enemy+0x24>
    return NULL;
    139c:	0005883a 	mov	r2,zero
    13a0:	00002906 	br	1448 <delete_enemy+0xc8>

  if (curr->y_pos + sizes[curr->id][1]>=475 || curr->health==0) {
    13a4:	e0bfff17 	ldw	r2,-4(fp)
    13a8:	10c00117 	ldw	r3,4(r2)
    13ac:	e0bfff17 	ldw	r2,-4(fp)
    13b0:	11000317 	ldw	r4,12(r2)
    13b4:	00800074 	movhi	r2,1
    13b8:	108bb004 	addi	r2,r2,11968
    13bc:	200890fa 	slli	r4,r4,3
    13c0:	1105883a 	add	r2,r2,r4
    13c4:	10800104 	addi	r2,r2,4
    13c8:	10800017 	ldw	r2,0(r2)
    13cc:	1885883a 	add	r2,r3,r2
    13d0:	108076c8 	cmpgei	r2,r2,475
    13d4:	1000031e 	bne	r2,zero,13e4 <delete_enemy+0x64>
    13d8:	e0bfff17 	ldw	r2,-4(fp)
    13dc:	10800217 	ldw	r2,8(r2)
    13e0:	1000111e 	bne	r2,zero,1428 <delete_enemy+0xa8>
    enemy *tempNext;
    tempNext = curr->next;
    13e4:	e0bfff17 	ldw	r2,-4(fp)
    13e8:	10800617 	ldw	r2,24(r2)
    13ec:	e0bffe15 	stw	r2,-8(fp)
    renderer(curr->x_pos,curr->y_pos,curr->id,1);//Render shadow
    13f0:	e0bfff17 	ldw	r2,-4(fp)
    13f4:	11000017 	ldw	r4,0(r2)
    13f8:	e0bfff17 	ldw	r2,-4(fp)
    13fc:	10c00117 	ldw	r3,4(r2)
    1400:	e0bfff17 	ldw	r2,-4(fp)
    1404:	10800317 	ldw	r2,12(r2)
    1408:	180b883a 	mov	r5,r3
    140c:	100d883a 	mov	r6,r2
    1410:	01c00044 	movi	r7,1
    1414:	00016340 	call	1634 <renderer>
    free(curr);
    1418:	e13fff17 	ldw	r4,-4(fp)
    141c:	00031c80 	call	31c8 <free>
    return tempNext;
    1420:	e0bffe17 	ldw	r2,-8(fp)
    1424:	00000806 	br	1448 <delete_enemy+0xc8>
  }
  curr->next = delete_enemy(curr->next);
    1428:	e0bfff17 	ldw	r2,-4(fp)
    142c:	10800617 	ldw	r2,24(r2)
    1430:	1009883a 	mov	r4,r2
    1434:	00013800 	call	1380 <delete_enemy>
    1438:	1007883a 	mov	r3,r2
    143c:	e0bfff17 	ldw	r2,-4(fp)
    1440:	10c00615 	stw	r3,24(r2)
  return curr;
    1444:	e0bfff17 	ldw	r2,-4(fp)
}
    1448:	e037883a 	mov	sp,fp
    144c:	dfc00117 	ldw	ra,4(sp)
    1450:	df000017 	ldw	fp,0(sp)
    1454:	dec00204 	addi	sp,sp,8
    1458:	f800283a 	ret

0000145c <count_enemies>:

int count_enemies(enemy *em){
    145c:	defffc04 	addi	sp,sp,-16
    1460:	df000315 	stw	fp,12(sp)
    1464:	df000304 	addi	fp,sp,12
    1468:	e13fff15 	stw	r4,-4(fp)
	int i=0;
    146c:	e03ffd15 	stw	zero,-12(fp)
	enemy *start=em;
    1470:	e0bfff17 	ldw	r2,-4(fp)
    1474:	e0bffe15 	stw	r2,-8(fp)
	while(start!=NULL){
    1478:	00000606 	br	1494 <count_enemies+0x38>
		start=start->next;
    147c:	e0bffe17 	ldw	r2,-8(fp)
    1480:	10800617 	ldw	r2,24(r2)
    1484:	e0bffe15 	stw	r2,-8(fp)
		i++;
    1488:	e0bffd17 	ldw	r2,-12(fp)
    148c:	10800044 	addi	r2,r2,1
    1490:	e0bffd15 	stw	r2,-12(fp)
}

int count_enemies(enemy *em){
	int i=0;
	enemy *start=em;
	while(start!=NULL){
    1494:	e0bffe17 	ldw	r2,-8(fp)
    1498:	103ff81e 	bne	r2,zero,147c <__alt_data_end+0xfffabd4c>
		start=start->next;
		i++;
	}
	return i;
    149c:	e0bffd17 	ldw	r2,-12(fp)
}
    14a0:	e037883a 	mov	sp,fp
    14a4:	df000017 	ldw	fp,0(sp)
    14a8:	dec00104 	addi	sp,sp,4
    14ac:	f800283a 	ret

000014b0 <move_enemies>:

void move_enemies(enemy *start){
    14b0:	defffc04 	addi	sp,sp,-16
    14b4:	dfc00315 	stw	ra,12(sp)
    14b8:	df000215 	stw	fp,8(sp)
    14bc:	df000204 	addi	fp,sp,8
    14c0:	e13fff15 	stw	r4,-4(fp)
	if(start==NULL){
    14c4:	e0bfff17 	ldw	r2,-4(fp)
    14c8:	1000041e 	bne	r2,zero,14dc <move_enemies+0x2c>
		printf("You piece of shit\n");
    14cc:	01000074 	movhi	r4,1
    14d0:	210ac804 	addi	r4,r4,11040
    14d4:	0003aa40 	call	3aa4 <puts>
    14d8:	00001106 	br	1520 <move_enemies+0x70>
	}
	else{
	enemy *em=start;
    14dc:	e0bfff17 	ldw	r2,-4(fp)
    14e0:	e0bffe15 	stw	r2,-8(fp)
	while(em!=NULL){
    14e4:	00000c06 	br	1518 <move_enemies+0x68>
		move_enemy(em,em->x_pos,em->y_pos+3);
    14e8:	e0bffe17 	ldw	r2,-8(fp)
    14ec:	10c00017 	ldw	r3,0(r2)
    14f0:	e0bffe17 	ldw	r2,-8(fp)
    14f4:	10800117 	ldw	r2,4(r2)
    14f8:	108000c4 	addi	r2,r2,3
    14fc:	e13ffe17 	ldw	r4,-8(fp)
    1500:	180b883a 	mov	r5,r3
    1504:	100d883a 	mov	r6,r2
    1508:	0001e280 	call	1e28 <move_enemy>
		em=em->next;
    150c:	e0bffe17 	ldw	r2,-8(fp)
    1510:	10800617 	ldw	r2,24(r2)
    1514:	e0bffe15 	stw	r2,-8(fp)
	if(start==NULL){
		printf("You piece of shit\n");
	}
	else{
	enemy *em=start;
	while(em!=NULL){
    1518:	e0bffe17 	ldw	r2,-8(fp)
    151c:	103ff21e 	bne	r2,zero,14e8 <__alt_data_end+0xfffabdb8>
		move_enemy(em,em->x_pos,em->y_pos+3);
		em=em->next;
		}
	}
}
    1520:	e037883a 	mov	sp,fp
    1524:	dfc00117 	ldw	ra,4(sp)
    1528:	df000017 	ldw	fp,0(sp)
    152c:	dec00204 	addi	sp,sp,8
    1530:	f800283a 	ret

00001534 <render_enemies>:

void render_enemies(enemy *start){
    1534:	defffc04 	addi	sp,sp,-16
    1538:	dfc00315 	stw	ra,12(sp)
    153c:	df000215 	stw	fp,8(sp)
    1540:	df000204 	addi	fp,sp,8
    1544:	e13fff15 	stw	r4,-4(fp)
	enemy *em=start;
    1548:	e0bfff17 	ldw	r2,-4(fp)
    154c:	e0bffe15 	stw	r2,-8(fp)
	while(em!=NULL){
    1550:	00000506 	br	1568 <render_enemies+0x34>
		render_enemy(em);
    1554:	e13ffe17 	ldw	r4,-8(fp)
    1558:	00015840 	call	1584 <render_enemy>
		em=em->next;
    155c:	e0bffe17 	ldw	r2,-8(fp)
    1560:	10800617 	ldw	r2,24(r2)
    1564:	e0bffe15 	stw	r2,-8(fp)
	}
}

void render_enemies(enemy *start){
	enemy *em=start;
	while(em!=NULL){
    1568:	e0bffe17 	ldw	r2,-8(fp)
    156c:	103ff91e 	bne	r2,zero,1554 <__alt_data_end+0xfffabe24>
		render_enemy(em);
		em=em->next;
	}
}
    1570:	e037883a 	mov	sp,fp
    1574:	dfc00117 	ldw	ra,4(sp)
    1578:	df000017 	ldw	fp,0(sp)
    157c:	dec00204 	addi	sp,sp,8
    1580:	f800283a 	ret

00001584 <render_enemy>:

void render_enemy(enemy *em){
    1584:	defffd04 	addi	sp,sp,-12
    1588:	dfc00215 	stw	ra,8(sp)
    158c:	df000115 	stw	fp,4(sp)
    1590:	df000104 	addi	fp,sp,4
    1594:	e13fff15 	stw	r4,-4(fp)
	if(em==NULL){
    1598:	e0bfff17 	ldw	r2,-4(fp)
    159c:	1000041e 	bne	r2,zero,15b0 <render_enemy+0x2c>
		printf("enemy not initialized");
    15a0:	01000074 	movhi	r4,1
    15a4:	210acd04 	addi	r4,r4,11060
    15a8:	00039b00 	call	39b0 <printf>
    15ac:	00001c06 	br	1620 <render_enemy+0x9c>
		}
	else{
		renderer(em->old_x,em->old_y,em->id,1);//Shadow First
    15b0:	e0bfff17 	ldw	r2,-4(fp)
    15b4:	11000417 	ldw	r4,16(r2)
    15b8:	e0bfff17 	ldw	r2,-4(fp)
    15bc:	10c00517 	ldw	r3,20(r2)
    15c0:	e0bfff17 	ldw	r2,-4(fp)
    15c4:	10800317 	ldw	r2,12(r2)
    15c8:	180b883a 	mov	r5,r3
    15cc:	100d883a 	mov	r6,r2
    15d0:	01c00044 	movi	r7,1
    15d4:	00016340 	call	1634 <renderer>
		renderer(em->x_pos,em->y_pos,em->id,0);
    15d8:	e0bfff17 	ldw	r2,-4(fp)
    15dc:	11000017 	ldw	r4,0(r2)
    15e0:	e0bfff17 	ldw	r2,-4(fp)
    15e4:	10c00117 	ldw	r3,4(r2)
    15e8:	e0bfff17 	ldw	r2,-4(fp)
    15ec:	10800317 	ldw	r2,12(r2)
    15f0:	180b883a 	mov	r5,r3
    15f4:	100d883a 	mov	r6,r2
    15f8:	000f883a 	mov	r7,zero
    15fc:	00016340 	call	1634 <renderer>
		em->old_x=em->x_pos;
    1600:	e0bfff17 	ldw	r2,-4(fp)
    1604:	10c00017 	ldw	r3,0(r2)
    1608:	e0bfff17 	ldw	r2,-4(fp)
    160c:	10c00415 	stw	r3,16(r2)
		em->old_y=em->y_pos;
    1610:	e0bfff17 	ldw	r2,-4(fp)
    1614:	10c00117 	ldw	r3,4(r2)
    1618:	e0bfff17 	ldw	r2,-4(fp)
    161c:	10c00515 	stw	r3,20(r2)
		}
}
    1620:	e037883a 	mov	sp,fp
    1624:	dfc00117 	ldw	ra,4(sp)
    1628:	df000017 	ldw	fp,0(sp)
    162c:	dec00204 	addi	sp,sp,8
    1630:	f800283a 	ret

00001634 <renderer>:


void renderer(int x, int y, int sprite_num, int is_shadow)
{
    1634:	defffb04 	addi	sp,sp,-20
    1638:	df000415 	stw	fp,16(sp)
    163c:	df000404 	addi	fp,sp,16
    1640:	e13ffc15 	stw	r4,-16(fp)
    1644:	e17ffd15 	stw	r5,-12(fp)
    1648:	e1bffe15 	stw	r6,-8(fp)
    164c:	e1ffff15 	stw	r7,-4(fp)
	if(is_shadow==1)
    1650:	e0bfff17 	ldw	r2,-4(fp)
    1654:	10800058 	cmpnei	r2,r2,1
    1658:	1000051e 	bne	r2,zero,1670 <renderer+0x3c>
		*sw_to_hw = 4;
    165c:	00800234 	movhi	r2,8
    1660:	10842004 	addi	r2,r2,4224
    1664:	00c00104 	movi	r3,4
    1668:	10c00015 	stw	r3,0(r2)
    166c:	00000606 	br	1688 <renderer+0x54>
	else
		*sw_to_hw &= 0;
    1670:	00800234 	movhi	r2,8
    1674:	10842004 	addi	r2,r2,4224
    1678:	10800017 	ldw	r2,0(r2)
    167c:	00800234 	movhi	r2,8
    1680:	10842004 	addi	r2,r2,4224
    1684:	10000015 	stw	zero,0(r2)
	*sprite_number = sprite_num;
    1688:	00800234 	movhi	r2,8
    168c:	10842804 	addi	r2,r2,4256
    1690:	e0fffe17 	ldw	r3,-8(fp)
    1694:	10c00015 	stw	r3,0(r2)
	*sprite_xy = 1024*x + y;
    1698:	00800234 	movhi	r2,8
    169c:	10842404 	addi	r2,r2,4240
    16a0:	e0fffc17 	ldw	r3,-16(fp)
    16a4:	180892ba 	slli	r4,r3,10
    16a8:	e0fffd17 	ldw	r3,-12(fp)
    16ac:	20c7883a 	add	r3,r4,r3
    16b0:	10c00015 	stw	r3,0(r2)
	*sw_to_hw |= 2;
    16b4:	00800234 	movhi	r2,8
    16b8:	10842004 	addi	r2,r2,4224
    16bc:	00c00234 	movhi	r3,8
    16c0:	18c42004 	addi	r3,r3,4224
    16c4:	18c00017 	ldw	r3,0(r3)
    16c8:	18c00094 	ori	r3,r3,2
    16cc:	10c00015 	stw	r3,0(r2)
	while(*hw_to_sw%2 != 0)
    16d0:	0001883a 	nop
    16d4:	00800234 	movhi	r2,8
    16d8:	10841c04 	addi	r2,r2,4208
    16dc:	10800017 	ldw	r2,0(r2)
    16e0:	1080004c 	andi	r2,r2,1
    16e4:	103ffb1e 	bne	r2,zero,16d4 <__alt_data_end+0xfffabfa4>
	{}
	*sw_to_hw &= ~2;
    16e8:	00800234 	movhi	r2,8
    16ec:	10842004 	addi	r2,r2,4224
    16f0:	00c00234 	movhi	r3,8
    16f4:	18c42004 	addi	r3,r3,4224
    16f8:	19000017 	ldw	r4,0(r3)
    16fc:	00ffff44 	movi	r3,-3
    1700:	20c6703a 	and	r3,r4,r3
    1704:	10c00015 	stw	r3,0(r2)
	while(*hw_to_sw != 1)
    1708:	0001883a 	nop
    170c:	00800234 	movhi	r2,8
    1710:	10841c04 	addi	r2,r2,4208
    1714:	10800017 	ldw	r2,0(r2)
    1718:	10800058 	cmpnei	r2,r2,1
    171c:	103ffb1e 	bne	r2,zero,170c <__alt_data_end+0xfffabfdc>
	{}
	*sw_to_hw |= 1;
    1720:	00800234 	movhi	r2,8
    1724:	10842004 	addi	r2,r2,4224
    1728:	00c00234 	movhi	r3,8
    172c:	18c42004 	addi	r3,r3,4224
    1730:	18c00017 	ldw	r3,0(r3)
    1734:	18c00054 	ori	r3,r3,1
    1738:	10c00015 	stw	r3,0(r2)
	return;
    173c:	0001883a 	nop
}
    1740:	e037883a 	mov	sp,fp
    1744:	df000017 	ldw	fp,0(sp)
    1748:	dec00104 	addi	sp,sp,4
    174c:	f800283a 	ret

00001750 <render_shadows>:

void render_shadows(player *first,player *second){
    1750:	defffc04 	addi	sp,sp,-16
    1754:	dfc00315 	stw	ra,12(sp)
    1758:	df000215 	stw	fp,8(sp)
    175c:	df000204 	addi	fp,sp,8
    1760:	e13ffe15 	stw	r4,-8(fp)
    1764:	e17fff15 	stw	r5,-4(fp)
	if(first==NULL || second ==NULL){
    1768:	e0bffe17 	ldw	r2,-8(fp)
    176c:	10000226 	beq	r2,zero,1778 <render_shadows+0x28>
    1770:	e0bfff17 	ldw	r2,-4(fp)
    1774:	1000041e 	bne	r2,zero,1788 <render_shadows+0x38>
			printf("players not instantiated");
    1778:	01000074 	movhi	r4,1
    177c:	210ac104 	addi	r4,r4,11012
    1780:	00039b00 	call	39b0 <printf>
    1784:	00001406 	br	17d8 <render_shadows+0x88>
	}
	else{
		renderer(first->old_x,first->old_y,first->id,1);
    1788:	e0bffe17 	ldw	r2,-8(fp)
    178c:	11000417 	ldw	r4,16(r2)
    1790:	e0bffe17 	ldw	r2,-8(fp)
    1794:	10c00517 	ldw	r3,20(r2)
    1798:	e0bffe17 	ldw	r2,-8(fp)
    179c:	10800317 	ldw	r2,12(r2)
    17a0:	180b883a 	mov	r5,r3
    17a4:	100d883a 	mov	r6,r2
    17a8:	01c00044 	movi	r7,1
    17ac:	00016340 	call	1634 <renderer>
		renderer(second->old_x,second->old_y,second->id,1);
    17b0:	e0bfff17 	ldw	r2,-4(fp)
    17b4:	11000417 	ldw	r4,16(r2)
    17b8:	e0bfff17 	ldw	r2,-4(fp)
    17bc:	10c00517 	ldw	r3,20(r2)
    17c0:	e0bfff17 	ldw	r2,-4(fp)
    17c4:	10800317 	ldw	r2,12(r2)
    17c8:	180b883a 	mov	r5,r3
    17cc:	100d883a 	mov	r6,r2
    17d0:	01c00044 	movi	r7,1
    17d4:	00016340 	call	1634 <renderer>
	}
	return;
    17d8:	0001883a 	nop
}
    17dc:	e037883a 	mov	sp,fp
    17e0:	dfc00117 	ldw	ra,4(sp)
    17e4:	df000017 	ldw	fp,0(sp)
    17e8:	dec00204 	addi	sp,sp,8
    17ec:	f800283a 	ret

000017f0 <render_shadow>:
void render_shadow(player *current){
    17f0:	defffd04 	addi	sp,sp,-12
    17f4:	dfc00215 	stw	ra,8(sp)
    17f8:	df000115 	stw	fp,4(sp)
    17fc:	df000104 	addi	fp,sp,4
    1800:	e13fff15 	stw	r4,-4(fp)
	if(current==NULL){
    1804:	e0bfff17 	ldw	r2,-4(fp)
    1808:	1000041e 	bne	r2,zero,181c <render_shadow+0x2c>
			printf("players not instantiated");
    180c:	01000074 	movhi	r4,1
    1810:	210ac104 	addi	r4,r4,11012
    1814:	00039b00 	call	39b0 <printf>
    1818:	00001206 	br	1864 <render_shadow+0x74>
	}
	else{
		renderer(current->old_x,current->old_y,current->id,1);
    181c:	e0bfff17 	ldw	r2,-4(fp)
    1820:	11000417 	ldw	r4,16(r2)
    1824:	e0bfff17 	ldw	r2,-4(fp)
    1828:	10c00517 	ldw	r3,20(r2)
    182c:	e0bfff17 	ldw	r2,-4(fp)
    1830:	10800317 	ldw	r2,12(r2)
    1834:	180b883a 	mov	r5,r3
    1838:	100d883a 	mov	r6,r2
    183c:	01c00044 	movi	r7,1
    1840:	00016340 	call	1634 <renderer>
		current->old_x=current->x_pos;
    1844:	e0bfff17 	ldw	r2,-4(fp)
    1848:	10c00017 	ldw	r3,0(r2)
    184c:	e0bfff17 	ldw	r2,-4(fp)
    1850:	10c00415 	stw	r3,16(r2)
		current->old_y=current->y_pos;
    1854:	e0bfff17 	ldw	r2,-4(fp)
    1858:	10c00117 	ldw	r3,4(r2)
    185c:	e0bfff17 	ldw	r2,-4(fp)
    1860:	10c00515 	stw	r3,20(r2)
	}
	return;
    1864:	0001883a 	nop
}
    1868:	e037883a 	mov	sp,fp
    186c:	dfc00117 	ldw	ra,4(sp)
    1870:	df000017 	ldw	fp,0(sp)
    1874:	dec00204 	addi	sp,sp,8
    1878:	f800283a 	ret

0000187c <render_players>:

void render_players(player *first,player *second){
    187c:	defffc04 	addi	sp,sp,-16
    1880:	dfc00315 	stw	ra,12(sp)
    1884:	df000215 	stw	fp,8(sp)
    1888:	df000204 	addi	fp,sp,8
    188c:	e13ffe15 	stw	r4,-8(fp)
    1890:	e17fff15 	stw	r5,-4(fp)
	if(first==NULL || second ==NULL){
    1894:	e0bffe17 	ldw	r2,-8(fp)
    1898:	10000226 	beq	r2,zero,18a4 <render_players+0x28>
    189c:	e0bfff17 	ldw	r2,-4(fp)
    18a0:	1000041e 	bne	r2,zero,18b4 <render_players+0x38>
		printf("players not instantiated");
    18a4:	01000074 	movhi	r4,1
    18a8:	210ac104 	addi	r4,r4,11012
    18ac:	00039b00 	call	39b0 <printf>
    18b0:	00001e06 	br	192c <render_players+0xb0>
	}
	else{
		if(render_player_check(first)==0){
    18b4:	e13ffe17 	ldw	r4,-8(fp)
    18b8:	00019400 	call	1940 <render_player_check>
    18bc:	10000c1e 	bne	r2,zero,18f0 <render_players+0x74>
			render_shadow(first);
    18c0:	e13ffe17 	ldw	r4,-8(fp)
    18c4:	00017f00 	call	17f0 <render_shadow>
			renderer(first->x_pos,first->y_pos,first->id,0);
    18c8:	e0bffe17 	ldw	r2,-8(fp)
    18cc:	11000017 	ldw	r4,0(r2)
    18d0:	e0bffe17 	ldw	r2,-8(fp)
    18d4:	10c00117 	ldw	r3,4(r2)
    18d8:	e0bffe17 	ldw	r2,-8(fp)
    18dc:	10800317 	ldw	r2,12(r2)
    18e0:	180b883a 	mov	r5,r3
    18e4:	100d883a 	mov	r6,r2
    18e8:	000f883a 	mov	r7,zero
    18ec:	00016340 	call	1634 <renderer>

		}
		if(render_player_check(second)==0){
    18f0:	e13fff17 	ldw	r4,-4(fp)
    18f4:	00019400 	call	1940 <render_player_check>
    18f8:	10000c1e 	bne	r2,zero,192c <render_players+0xb0>
			render_shadow(second);
    18fc:	e13fff17 	ldw	r4,-4(fp)
    1900:	00017f00 	call	17f0 <render_shadow>
			renderer(second->x_pos,second->y_pos,second->id,0);
    1904:	e0bfff17 	ldw	r2,-4(fp)
    1908:	11000017 	ldw	r4,0(r2)
    190c:	e0bfff17 	ldw	r2,-4(fp)
    1910:	10c00117 	ldw	r3,4(r2)
    1914:	e0bfff17 	ldw	r2,-4(fp)
    1918:	10800317 	ldw	r2,12(r2)
    191c:	180b883a 	mov	r5,r3
    1920:	100d883a 	mov	r6,r2
    1924:	000f883a 	mov	r7,zero
    1928:	00016340 	call	1634 <renderer>

		}
	}
}
    192c:	e037883a 	mov	sp,fp
    1930:	dfc00117 	ldw	ra,4(sp)
    1934:	df000017 	ldw	fp,0(sp)
    1938:	dec00204 	addi	sp,sp,8
    193c:	f800283a 	ret

00001940 <render_player_check>:
int render_player_check(player *current){
    1940:	defffd04 	addi	sp,sp,-12
    1944:	df000215 	stw	fp,8(sp)
    1948:	df000204 	addi	fp,sp,8
    194c:	e13fff15 	stw	r4,-4(fp)
	int i=0;
    1950:	e03ffe15 	stw	zero,-8(fp)
	if(current->x_pos==current->old_x && current->y_pos==current->old_y){
    1954:	e0bfff17 	ldw	r2,-4(fp)
    1958:	10c00017 	ldw	r3,0(r2)
    195c:	e0bfff17 	ldw	r2,-4(fp)
    1960:	10800417 	ldw	r2,16(r2)
    1964:	1880071e 	bne	r3,r2,1984 <render_player_check+0x44>
    1968:	e0bfff17 	ldw	r2,-4(fp)
    196c:	10c00117 	ldw	r3,4(r2)
    1970:	e0bfff17 	ldw	r2,-4(fp)
    1974:	10800517 	ldw	r2,20(r2)
    1978:	1880021e 	bne	r3,r2,1984 <render_player_check+0x44>
		i=1;
    197c:	00800044 	movi	r2,1
    1980:	e0bffe15 	stw	r2,-8(fp)
	}
	return i;
    1984:	e0bffe17 	ldw	r2,-8(fp)
}
    1988:	e037883a 	mov	sp,fp
    198c:	df000017 	ldw	fp,0(sp)
    1990:	dec00104 	addi	sp,sp,4
    1994:	f800283a 	ret

00001998 <keycode_effect>:
//	if(current->x_pos==current->old_x && current->y_pos==current->old_y){
//		i=1;
//	}
//	return i;
//}
int keycode_effect(player *first,player *second,unsigned int *arr, player_projectile **bullets, int can_fire_n){
    1998:	defff804 	addi	sp,sp,-32
    199c:	dfc00715 	stw	ra,28(sp)
    19a0:	df000615 	stw	fp,24(sp)
    19a4:	df000604 	addi	fp,sp,24
    19a8:	e13ffc15 	stw	r4,-16(fp)
    19ac:	e17ffd15 	stw	r5,-12(fp)
    19b0:	e1bffe15 	stw	r6,-8(fp)
    19b4:	e1ffff15 	stw	r7,-4(fp)
	int i=0;
    19b8:	e03ffa15 	stw	zero,-24(fp)
	int j=0;
    19bc:	e03ffb15 	stw	zero,-20(fp)
	for(i=0;i<4;i++){
    19c0:	e03ffa15 	stw	zero,-24(fp)
    19c4:	00007306 	br	1b94 <keycode_effect+0x1fc>
		if(arr[i]==0x04){
    19c8:	e0bffa17 	ldw	r2,-24(fp)
    19cc:	1085883a 	add	r2,r2,r2
    19d0:	1085883a 	add	r2,r2,r2
    19d4:	1007883a 	mov	r3,r2
    19d8:	e0bffe17 	ldw	r2,-8(fp)
    19dc:	10c5883a 	add	r2,r2,r3
    19e0:	10800017 	ldw	r2,0(r2)
    19e4:	10800118 	cmpnei	r2,r2,4
    19e8:	10000b1e 	bne	r2,zero,1a18 <keycode_effect+0x80>
			j=1;
    19ec:	00800044 	movi	r2,1
    19f0:	e0bffb15 	stw	r2,-20(fp)
			move_player(first,first->x_pos-5,first->y_pos);
    19f4:	e0bffc17 	ldw	r2,-16(fp)
    19f8:	10800017 	ldw	r2,0(r2)
    19fc:	10fffec4 	addi	r3,r2,-5
    1a00:	e0bffc17 	ldw	r2,-16(fp)
    1a04:	10800117 	ldw	r2,4(r2)
    1a08:	e13ffc17 	ldw	r4,-16(fp)
    1a0c:	180b883a 	mov	r5,r3
    1a10:	100d883a 	mov	r6,r2
    1a14:	0001d0c0 	call	1d0c <move_player>
		}
		if(arr[i]==0x07){
    1a18:	e0bffa17 	ldw	r2,-24(fp)
    1a1c:	1085883a 	add	r2,r2,r2
    1a20:	1085883a 	add	r2,r2,r2
    1a24:	1007883a 	mov	r3,r2
    1a28:	e0bffe17 	ldw	r2,-8(fp)
    1a2c:	10c5883a 	add	r2,r2,r3
    1a30:	10800017 	ldw	r2,0(r2)
    1a34:	108001d8 	cmpnei	r2,r2,7
    1a38:	10000b1e 	bne	r2,zero,1a68 <keycode_effect+0xd0>
			j=1;
    1a3c:	00800044 	movi	r2,1
    1a40:	e0bffb15 	stw	r2,-20(fp)
			move_player(first,first->x_pos+5,first->y_pos);
    1a44:	e0bffc17 	ldw	r2,-16(fp)
    1a48:	10800017 	ldw	r2,0(r2)
    1a4c:	10c00144 	addi	r3,r2,5
    1a50:	e0bffc17 	ldw	r2,-16(fp)
    1a54:	10800117 	ldw	r2,4(r2)
    1a58:	e13ffc17 	ldw	r4,-16(fp)
    1a5c:	180b883a 	mov	r5,r3
    1a60:	100d883a 	mov	r6,r2
    1a64:	0001d0c0 	call	1d0c <move_player>
		}
		if(arr[i]==0x1a){
    1a68:	e0bffa17 	ldw	r2,-24(fp)
    1a6c:	1085883a 	add	r2,r2,r2
    1a70:	1085883a 	add	r2,r2,r2
    1a74:	1007883a 	mov	r3,r2
    1a78:	e0bffe17 	ldw	r2,-8(fp)
    1a7c:	10c5883a 	add	r2,r2,r3
    1a80:	10800017 	ldw	r2,0(r2)
    1a84:	10800698 	cmpnei	r2,r2,26
    1a88:	1000071e 	bne	r2,zero,1aa8 <keycode_effect+0x110>
			if(can_fire_n == 0)
    1a8c:	e0800217 	ldw	r2,8(fp)
    1a90:	1000051e 	bne	r2,zero,1aa8 <keycode_effect+0x110>
			{
				j=1;
    1a94:	00800044 	movi	r2,1
    1a98:	e0bffb15 	stw	r2,-20(fp)
				fire_projectile(first, bullets);
    1a9c:	e13ffc17 	ldw	r4,-16(fp)
    1aa0:	e17fff17 	ldw	r5,-4(fp)
    1aa4:	0001c2c0 	call	1c2c <fire_projectile>
			}
		}
		if(arr[i]==0x50){
    1aa8:	e0bffa17 	ldw	r2,-24(fp)
    1aac:	1085883a 	add	r2,r2,r2
    1ab0:	1085883a 	add	r2,r2,r2
    1ab4:	1007883a 	mov	r3,r2
    1ab8:	e0bffe17 	ldw	r2,-8(fp)
    1abc:	10c5883a 	add	r2,r2,r3
    1ac0:	10800017 	ldw	r2,0(r2)
    1ac4:	10801418 	cmpnei	r2,r2,80
    1ac8:	10000b1e 	bne	r2,zero,1af8 <keycode_effect+0x160>
			j=1;
    1acc:	00800044 	movi	r2,1
    1ad0:	e0bffb15 	stw	r2,-20(fp)
			move_player(second,second->x_pos-5,second->y_pos);
    1ad4:	e0bffd17 	ldw	r2,-12(fp)
    1ad8:	10800017 	ldw	r2,0(r2)
    1adc:	10fffec4 	addi	r3,r2,-5
    1ae0:	e0bffd17 	ldw	r2,-12(fp)
    1ae4:	10800117 	ldw	r2,4(r2)
    1ae8:	e13ffd17 	ldw	r4,-12(fp)
    1aec:	180b883a 	mov	r5,r3
    1af0:	100d883a 	mov	r6,r2
    1af4:	0001d0c0 	call	1d0c <move_player>
		}
		if(arr[i]==0x4f){
    1af8:	e0bffa17 	ldw	r2,-24(fp)
    1afc:	1085883a 	add	r2,r2,r2
    1b00:	1085883a 	add	r2,r2,r2
    1b04:	1007883a 	mov	r3,r2
    1b08:	e0bffe17 	ldw	r2,-8(fp)
    1b0c:	10c5883a 	add	r2,r2,r3
    1b10:	10800017 	ldw	r2,0(r2)
    1b14:	108013d8 	cmpnei	r2,r2,79
    1b18:	10000b1e 	bne	r2,zero,1b48 <keycode_effect+0x1b0>
			j=1;
    1b1c:	00800044 	movi	r2,1
    1b20:	e0bffb15 	stw	r2,-20(fp)
			move_player(second,second->x_pos+5,second->y_pos);
    1b24:	e0bffd17 	ldw	r2,-12(fp)
    1b28:	10800017 	ldw	r2,0(r2)
    1b2c:	10c00144 	addi	r3,r2,5
    1b30:	e0bffd17 	ldw	r2,-12(fp)
    1b34:	10800117 	ldw	r2,4(r2)
    1b38:	e13ffd17 	ldw	r4,-12(fp)
    1b3c:	180b883a 	mov	r5,r3
    1b40:	100d883a 	mov	r6,r2
    1b44:	0001d0c0 	call	1d0c <move_player>
		}
		if(arr[i]==0x52){
    1b48:	e0bffa17 	ldw	r2,-24(fp)
    1b4c:	1085883a 	add	r2,r2,r2
    1b50:	1085883a 	add	r2,r2,r2
    1b54:	1007883a 	mov	r3,r2
    1b58:	e0bffe17 	ldw	r2,-8(fp)
    1b5c:	10c5883a 	add	r2,r2,r3
    1b60:	10800017 	ldw	r2,0(r2)
    1b64:	10801498 	cmpnei	r2,r2,82
    1b68:	1000071e 	bne	r2,zero,1b88 <keycode_effect+0x1f0>
			if(can_fire_n == 0)
    1b6c:	e0800217 	ldw	r2,8(fp)
    1b70:	1000051e 	bne	r2,zero,1b88 <keycode_effect+0x1f0>
			{
				j=1;
    1b74:	00800044 	movi	r2,1
    1b78:	e0bffb15 	stw	r2,-20(fp)
				fire_projectile(second, bullets);
    1b7c:	e13ffd17 	ldw	r4,-12(fp)
    1b80:	e17fff17 	ldw	r5,-4(fp)
    1b84:	0001c2c0 	call	1c2c <fire_projectile>
//	return i;
//}
int keycode_effect(player *first,player *second,unsigned int *arr, player_projectile **bullets, int can_fire_n){
	int i=0;
	int j=0;
	for(i=0;i<4;i++){
    1b88:	e0bffa17 	ldw	r2,-24(fp)
    1b8c:	10800044 	addi	r2,r2,1
    1b90:	e0bffa15 	stw	r2,-24(fp)
    1b94:	e0bffa17 	ldw	r2,-24(fp)
    1b98:	10800110 	cmplti	r2,r2,4
    1b9c:	103f8a1e 	bne	r2,zero,19c8 <__alt_data_end+0xfffac298>
				j=1;
				fire_projectile(second, bullets);
			}
		}
	}
	return j;
    1ba0:	e0bffb17 	ldw	r2,-20(fp)
}
    1ba4:	e037883a 	mov	sp,fp
    1ba8:	dfc00117 	ldw	ra,4(sp)
    1bac:	df000017 	ldw	fp,0(sp)
    1bb0:	dec00204 	addi	sp,sp,8
    1bb4:	f800283a 	ret

00001bb8 <parse_keycode>:
void parse_keycode(unsigned int *arr,unsigned int keycode1,unsigned int keycode2){
    1bb8:	defffc04 	addi	sp,sp,-16
    1bbc:	df000315 	stw	fp,12(sp)
    1bc0:	df000304 	addi	fp,sp,12
    1bc4:	e13ffd15 	stw	r4,-12(fp)
    1bc8:	e17ffe15 	stw	r5,-8(fp)
    1bcc:	e1bfff15 	stw	r6,-4(fp)
	arr[0]=keycode1%256;
    1bd0:	e0bffe17 	ldw	r2,-8(fp)
    1bd4:	10c03fcc 	andi	r3,r2,255
    1bd8:	e0bffd17 	ldw	r2,-12(fp)
    1bdc:	10c00015 	stw	r3,0(r2)
	arr[1]=keycode1/256;
    1be0:	e0bffd17 	ldw	r2,-12(fp)
    1be4:	10800104 	addi	r2,r2,4
    1be8:	e0fffe17 	ldw	r3,-8(fp)
    1bec:	1806d23a 	srli	r3,r3,8
    1bf0:	10c00015 	stw	r3,0(r2)
	arr[2]=keycode2%256;
    1bf4:	e0bffd17 	ldw	r2,-12(fp)
    1bf8:	10800204 	addi	r2,r2,8
    1bfc:	e0ffff17 	ldw	r3,-4(fp)
    1c00:	18c03fcc 	andi	r3,r3,255
    1c04:	10c00015 	stw	r3,0(r2)
	arr[3]=keycode2/256;
    1c08:	e0bffd17 	ldw	r2,-12(fp)
    1c0c:	10800304 	addi	r2,r2,12
    1c10:	e0ffff17 	ldw	r3,-4(fp)
    1c14:	1806d23a 	srli	r3,r3,8
    1c18:	10c00015 	stw	r3,0(r2)
}
    1c1c:	e037883a 	mov	sp,fp
    1c20:	df000017 	ldw	fp,0(sp)
    1c24:	dec00104 	addi	sp,sp,4
    1c28:	f800283a 	ret

00001c2c <fire_projectile>:


void fire_projectile(player *current, player_projectile **head)
{
    1c2c:	defffb04 	addi	sp,sp,-20
    1c30:	dfc00415 	stw	ra,16(sp)
    1c34:	df000315 	stw	fp,12(sp)
    1c38:	df000304 	addi	fp,sp,12
    1c3c:	e13ffe15 	stw	r4,-8(fp)
    1c40:	e17fff15 	stw	r5,-4(fp)
	player_projectile *new=(player_projectile*)malloc(sizeof(player_projectile));
    1c44:	01000504 	movi	r4,20
    1c48:	00031b40 	call	31b4 <malloc>
    1c4c:	e0bffd15 	stw	r2,-12(fp)
	new->x_pos=current->x_pos + (sizes[current->id][0])/2;
    1c50:	e0bffe17 	ldw	r2,-8(fp)
    1c54:	10c00017 	ldw	r3,0(r2)
    1c58:	e0bffe17 	ldw	r2,-8(fp)
    1c5c:	11000317 	ldw	r4,12(r2)
    1c60:	00800074 	movhi	r2,1
    1c64:	108bb004 	addi	r2,r2,11968
    1c68:	200890fa 	slli	r4,r4,3
    1c6c:	1105883a 	add	r2,r2,r4
    1c70:	10800017 	ldw	r2,0(r2)
    1c74:	1008d7fa 	srli	r4,r2,31
    1c78:	2085883a 	add	r2,r4,r2
    1c7c:	1005d07a 	srai	r2,r2,1
    1c80:	1887883a 	add	r3,r3,r2
    1c84:	e0bffd17 	ldw	r2,-12(fp)
    1c88:	10c00015 	stw	r3,0(r2)
	new->y_pos=current->y_pos + 1;
    1c8c:	e0bffe17 	ldw	r2,-8(fp)
    1c90:	10800117 	ldw	r2,4(r2)
    1c94:	10c00044 	addi	r3,r2,1
    1c98:	e0bffd17 	ldw	r2,-12(fp)
    1c9c:	10c00115 	stw	r3,4(r2)
	new->old_x = new->x_pos;
    1ca0:	e0bffd17 	ldw	r2,-12(fp)
    1ca4:	10c00017 	ldw	r3,0(r2)
    1ca8:	e0bffd17 	ldw	r2,-12(fp)
    1cac:	10c00215 	stw	r3,8(r2)
	new->old_y = new->y_pos;
    1cb0:	e0bffd17 	ldw	r2,-12(fp)
    1cb4:	10c00117 	ldw	r3,4(r2)
    1cb8:	e0bffd17 	ldw	r2,-12(fp)
    1cbc:	10c00315 	stw	r3,12(r2)
	new->next = *head;
    1cc0:	e0bfff17 	ldw	r2,-4(fp)
    1cc4:	10c00017 	ldw	r3,0(r2)
    1cc8:	e0bffd17 	ldw	r2,-12(fp)
    1ccc:	10c00415 	stw	r3,16(r2)
	*head = new;
    1cd0:	e0bfff17 	ldw	r2,-4(fp)
    1cd4:	e0fffd17 	ldw	r3,-12(fp)
    1cd8:	10c00015 	stw	r3,0(r2)
}
    1cdc:	e037883a 	mov	sp,fp
    1ce0:	dfc00117 	ldw	ra,4(sp)
    1ce4:	df000017 	ldw	fp,0(sp)
    1ce8:	dec00204 	addi	sp,sp,8
    1cec:	f800283a 	ret

00001cf0 <check_projectiles>:

void check_projectiles()
{
    1cf0:	deffff04 	addi	sp,sp,-4
    1cf4:	df000015 	stw	fp,0(sp)
    1cf8:	d839883a 	mov	fp,sp

}
    1cfc:	e037883a 	mov	sp,fp
    1d00:	df000017 	ldw	fp,0(sp)
    1d04:	dec00104 	addi	sp,sp,4
    1d08:	f800283a 	ret

00001d0c <move_player>:

void move_player(player *current, int x_pos, int y_pos){
    1d0c:	defff904 	addi	sp,sp,-28
    1d10:	dfc00615 	stw	ra,24(sp)
    1d14:	df000515 	stw	fp,20(sp)
    1d18:	df000504 	addi	fp,sp,20
    1d1c:	e13ffd15 	stw	r4,-12(fp)
    1d20:	e17ffe15 	stw	r5,-8(fp)
    1d24:	e1bfff15 	stw	r6,-4(fp)
	if(current==NULL)
    1d28:	e0bffd17 	ldw	r2,-12(fp)
    1d2c:	1000041e 	bne	r2,zero,1d40 <move_player+0x34>
		{
			printf("players not instantiated");
    1d30:	01000074 	movhi	r4,1
    1d34:	210ac104 	addi	r4,r4,11012
    1d38:	00039b00 	call	39b0 <printf>
    1d3c:	00003506 	br	1e14 <move_player+0x108>
		}
	else{
		int width = sizes[current->id][0];
    1d40:	e0bffd17 	ldw	r2,-12(fp)
    1d44:	10c00317 	ldw	r3,12(r2)
    1d48:	00800074 	movhi	r2,1
    1d4c:	108bb004 	addi	r2,r2,11968
    1d50:	180690fa 	slli	r3,r3,3
    1d54:	10c5883a 	add	r2,r2,r3
    1d58:	10800017 	ldw	r2,0(r2)
    1d5c:	e0bffb15 	stw	r2,-20(fp)
		int height = sizes[current->id][1];
    1d60:	e0bffd17 	ldw	r2,-12(fp)
    1d64:	10c00317 	ldw	r3,12(r2)
    1d68:	00800074 	movhi	r2,1
    1d6c:	108bb004 	addi	r2,r2,11968
    1d70:	180690fa 	slli	r3,r3,3
    1d74:	10c5883a 	add	r2,r2,r3
    1d78:	10800104 	addi	r2,r2,4
    1d7c:	10800017 	ldw	r2,0(r2)
    1d80:	e0bffc15 	stw	r2,-16(fp)
		current->x_pos = x_pos;
    1d84:	e0bffd17 	ldw	r2,-12(fp)
    1d88:	e0fffe17 	ldw	r3,-8(fp)
    1d8c:	10c00015 	stw	r3,0(r2)
		current->y_pos = y_pos;
    1d90:	e0bffd17 	ldw	r2,-12(fp)
    1d94:	e0ffff17 	ldw	r3,-4(fp)
    1d98:	10c00115 	stw	r3,4(r2)
		if((x_pos + width)> x_bounds)
    1d9c:	e0fffe17 	ldw	r3,-8(fp)
    1da0:	e0bffb17 	ldw	r2,-20(fp)
    1da4:	1885883a 	add	r2,r3,r2
    1da8:	1080a010 	cmplti	r2,r2,640
    1dac:	1000061e 	bne	r2,zero,1dc8 <move_player+0xbc>
			current->x_pos = x_bounds - width;
    1db0:	00c09fc4 	movi	r3,639
    1db4:	e0bffb17 	ldw	r2,-20(fp)
    1db8:	1887c83a 	sub	r3,r3,r2
    1dbc:	e0bffd17 	ldw	r2,-12(fp)
    1dc0:	10c00015 	stw	r3,0(r2)
    1dc4:	00000406 	br	1dd8 <move_player+0xcc>
		else if(x_pos < 0)
    1dc8:	e0bffe17 	ldw	r2,-8(fp)
    1dcc:	1000020e 	bge	r2,zero,1dd8 <move_player+0xcc>
		{
			current->x_pos = 0;
    1dd0:	e0bffd17 	ldw	r2,-12(fp)
    1dd4:	10000015 	stw	zero,0(r2)
		}
		if((y_pos + height) > y_bounds)
    1dd8:	e0ffff17 	ldw	r3,-4(fp)
    1ddc:	e0bffc17 	ldw	r2,-16(fp)
    1de0:	1885883a 	add	r2,r3,r2
    1de4:	10807810 	cmplti	r2,r2,480
    1de8:	1000061e 	bne	r2,zero,1e04 <move_player+0xf8>
			current->y_pos = y_bounds - height;
    1dec:	00c077c4 	movi	r3,479
    1df0:	e0bffc17 	ldw	r2,-16(fp)
    1df4:	1887c83a 	sub	r3,r3,r2
    1df8:	e0bffd17 	ldw	r2,-12(fp)
    1dfc:	10c00115 	stw	r3,4(r2)
    1e00:	00000406 	br	1e14 <move_player+0x108>
		else if(y_pos < 0)
    1e04:	e0bfff17 	ldw	r2,-4(fp)
    1e08:	1000020e 	bge	r2,zero,1e14 <move_player+0x108>
		{
			current->y_pos = 0;
    1e0c:	e0bffd17 	ldw	r2,-12(fp)
    1e10:	10000115 	stw	zero,4(r2)
		}
	}
}
    1e14:	e037883a 	mov	sp,fp
    1e18:	dfc00117 	ldw	ra,4(sp)
    1e1c:	df000017 	ldw	fp,0(sp)
    1e20:	dec00204 	addi	sp,sp,8
    1e24:	f800283a 	ret

00001e28 <move_enemy>:

void move_enemy(enemy *current, int x_pos, int y_pos){
    1e28:	defff904 	addi	sp,sp,-28
    1e2c:	dfc00615 	stw	ra,24(sp)
    1e30:	df000515 	stw	fp,20(sp)
    1e34:	df000504 	addi	fp,sp,20
    1e38:	e13ffd15 	stw	r4,-12(fp)
    1e3c:	e17ffe15 	stw	r5,-8(fp)
    1e40:	e1bfff15 	stw	r6,-4(fp)
	if(current==NULL)
    1e44:	e0bffd17 	ldw	r2,-12(fp)
    1e48:	1000041e 	bne	r2,zero,1e5c <move_enemy+0x34>
		{
			printf("players not instantiated");
    1e4c:	01000074 	movhi	r4,1
    1e50:	210ac104 	addi	r4,r4,11012
    1e54:	00039b00 	call	39b0 <printf>
    1e58:	00003506 	br	1f30 <move_enemy+0x108>
		}
	else{
		int width = sizes[current->id][0];
    1e5c:	e0bffd17 	ldw	r2,-12(fp)
    1e60:	10c00317 	ldw	r3,12(r2)
    1e64:	00800074 	movhi	r2,1
    1e68:	108bb004 	addi	r2,r2,11968
    1e6c:	180690fa 	slli	r3,r3,3
    1e70:	10c5883a 	add	r2,r2,r3
    1e74:	10800017 	ldw	r2,0(r2)
    1e78:	e0bffb15 	stw	r2,-20(fp)
		int height = sizes[current->id][1];
    1e7c:	e0bffd17 	ldw	r2,-12(fp)
    1e80:	10c00317 	ldw	r3,12(r2)
    1e84:	00800074 	movhi	r2,1
    1e88:	108bb004 	addi	r2,r2,11968
    1e8c:	180690fa 	slli	r3,r3,3
    1e90:	10c5883a 	add	r2,r2,r3
    1e94:	10800104 	addi	r2,r2,4
    1e98:	10800017 	ldw	r2,0(r2)
    1e9c:	e0bffc15 	stw	r2,-16(fp)
		current->x_pos = x_pos;
    1ea0:	e0bffd17 	ldw	r2,-12(fp)
    1ea4:	e0fffe17 	ldw	r3,-8(fp)
    1ea8:	10c00015 	stw	r3,0(r2)
		current->y_pos = y_pos;
    1eac:	e0bffd17 	ldw	r2,-12(fp)
    1eb0:	e0ffff17 	ldw	r3,-4(fp)
    1eb4:	10c00115 	stw	r3,4(r2)
		if((x_pos + width)> x_bounds)
    1eb8:	e0fffe17 	ldw	r3,-8(fp)
    1ebc:	e0bffb17 	ldw	r2,-20(fp)
    1ec0:	1885883a 	add	r2,r3,r2
    1ec4:	1080a010 	cmplti	r2,r2,640
    1ec8:	1000061e 	bne	r2,zero,1ee4 <move_enemy+0xbc>
			current->x_pos = x_bounds - width;
    1ecc:	00c09fc4 	movi	r3,639
    1ed0:	e0bffb17 	ldw	r2,-20(fp)
    1ed4:	1887c83a 	sub	r3,r3,r2
    1ed8:	e0bffd17 	ldw	r2,-12(fp)
    1edc:	10c00015 	stw	r3,0(r2)
    1ee0:	00000406 	br	1ef4 <move_enemy+0xcc>
		else if(x_pos < 0)
    1ee4:	e0bffe17 	ldw	r2,-8(fp)
    1ee8:	1000020e 	bge	r2,zero,1ef4 <move_enemy+0xcc>
		{
			current->x_pos = 0;
    1eec:	e0bffd17 	ldw	r2,-12(fp)
    1ef0:	10000015 	stw	zero,0(r2)
		}
		if((y_pos + height) > y_bounds)
    1ef4:	e0ffff17 	ldw	r3,-4(fp)
    1ef8:	e0bffc17 	ldw	r2,-16(fp)
    1efc:	1885883a 	add	r2,r3,r2
    1f00:	10807810 	cmplti	r2,r2,480
    1f04:	1000061e 	bne	r2,zero,1f20 <move_enemy+0xf8>
			current->y_pos = y_bounds - height;
    1f08:	00c077c4 	movi	r3,479
    1f0c:	e0bffc17 	ldw	r2,-16(fp)
    1f10:	1887c83a 	sub	r3,r3,r2
    1f14:	e0bffd17 	ldw	r2,-12(fp)
    1f18:	10c00115 	stw	r3,4(r2)
    1f1c:	00000406 	br	1f30 <move_enemy+0x108>
		else if(y_pos < 0)
    1f20:	e0bfff17 	ldw	r2,-4(fp)
    1f24:	1000020e 	bge	r2,zero,1f30 <move_enemy+0x108>
		{
			current->y_pos = 0;
    1f28:	e0bffd17 	ldw	r2,-12(fp)
    1f2c:	10000115 	stw	zero,4(r2)
		}
	}
}
    1f30:	e037883a 	mov	sp,fp
    1f34:	dfc00117 	ldw	ra,4(sp)
    1f38:	df000017 	ldw	fp,0(sp)
    1f3c:	dec00204 	addi	sp,sp,8
    1f40:	f800283a 	ret

00001f44 <UsbWrite>:
 *
 * @note     None
 *
 ******************************************************************************/
void UsbWrite(alt_u16 Address, alt_u16 Data)
{
    1f44:	defffc04 	addi	sp,sp,-16
    1f48:	dfc00315 	stw	ra,12(sp)
    1f4c:	df000215 	stw	fp,8(sp)
    1f50:	df000204 	addi	fp,sp,8
    1f54:	2007883a 	mov	r3,r4
    1f58:	2805883a 	mov	r2,r5
    1f5c:	e0fffe0d 	sth	r3,-8(fp)
    1f60:	e0bfff0d 	sth	r2,-4(fp)
	IO_write(HPI_ADDR_PORT, Address);
    1f64:	e0bffe0b 	ldhu	r2,-8(fp)
    1f68:	01000084 	movi	r4,2
    1f6c:	100b883a 	mov	r5,r2
    1f70:	00002c80 	call	2c8 <IO_write>
	IO_write(HPI_DATA_PORT, Data);
    1f74:	e0bfff0b 	ldhu	r2,-4(fp)
    1f78:	0009883a 	mov	r4,zero
    1f7c:	100b883a 	mov	r5,r2
    1f80:	00002c80 	call	2c8 <IO_write>
}
    1f84:	e037883a 	mov	sp,fp
    1f88:	dfc00117 	ldw	ra,4(sp)
    1f8c:	df000017 	ldw	fp,0(sp)
    1f90:	dec00204 	addi	sp,sp,8
    1f94:	f800283a 	ret

00001f98 <UsbRead>:
 *
 * @note     None
 *
 ******************************************************************************/
alt_u16 UsbRead(alt_u16 Address)
{
    1f98:	defffd04 	addi	sp,sp,-12
    1f9c:	dfc00215 	stw	ra,8(sp)
    1fa0:	df000115 	stw	fp,4(sp)
    1fa4:	df000104 	addi	fp,sp,4
    1fa8:	2005883a 	mov	r2,r4
    1fac:	e0bfff0d 	sth	r2,-4(fp)
	IO_write(HPI_ADDR_PORT, Address);
    1fb0:	e0bfff0b 	ldhu	r2,-4(fp)
    1fb4:	01000084 	movi	r4,2
    1fb8:	100b883a 	mov	r5,r2
    1fbc:	00002c80 	call	2c8 <IO_write>
	return IO_read(HPI_DATA_PORT);
    1fc0:	0009883a 	mov	r4,zero
    1fc4:	00003300 	call	330 <IO_read>
}
    1fc8:	e037883a 	mov	sp,fp
    1fcc:	dfc00117 	ldw	ra,4(sp)
    1fd0:	df000017 	ldw	fp,0(sp)
    1fd4:	dec00204 	addi	sp,sp,8
    1fd8:	f800283a 	ret

00001fdc <UsbSoftReset>:
 *
 * @note     None
 *
 ******************************************************************************/
void UsbSoftReset()
{
    1fdc:	defffe04 	addi	sp,sp,-8
    1fe0:	dfc00115 	stw	ra,4(sp)
    1fe4:	df000015 	stw	fp,0(sp)
    1fe8:	d839883a 	mov	fp,sp
	//XIo_Out16(USB_MAILBOX, COMM_RESET);
	IO_write(HPI_MAILBOX,COMM_RESET); //COMM_JUMP2CODE
    1fec:	01000044 	movi	r4,1
    1ff0:	017e9414 	movui	r5,64080
    1ff4:	00002c80 	call	2c8 <IO_write>
	usleep(100000);
    1ff8:	010000b4 	movhi	r4,2
    1ffc:	2121a804 	addi	r4,r4,-31072
    2000:	00104400 	call	10440 <usleep>
	printf("[USB INIT]:reset finished!\n");
    2004:	01000074 	movhi	r4,1
    2008:	210ad304 	addi	r4,r4,11084
    200c:	0003aa40 	call	3aa4 <puts>

	usleep(500000);
    2010:	01000234 	movhi	r4,8
    2014:	21284804 	addi	r4,r4,-24288
    2018:	00104400 	call	10440 <usleep>
	printf("[USB INIT]:Clear up the interrupt\r\n");
    201c:	01000074 	movhi	r4,1
    2020:	210ada04 	addi	r4,r4,11112
    2024:	0003aa40 	call	3aa4 <puts>
	IO_read(HPI_MAILBOX);
    2028:	01000044 	movi	r4,1
    202c:	00003300 	call	330 <IO_read>
	IO_read(HPI_STATUS);
    2030:	010000c4 	movi	r4,3
    2034:	00003300 	call	330 <IO_read>

	// Had to add the write due to a bug in BIOS where they overwrite
	// the mailbox after initialization with garbage.  The read clears
	// any pending interrupts.
	UsbRead (HPI_SIE1_MSG_ADR);
    2038:	01005104 	movi	r4,324
    203c:	0001f980 	call	1f98 <UsbRead>
	UsbWrite (HPI_SIE1_MSG_ADR, 0);
    2040:	01005104 	movi	r4,324
    2044:	000b883a 	mov	r5,zero
    2048:	0001f440 	call	1f44 <UsbWrite>
	UsbRead (HPI_SIE2_MSG_ADR);
    204c:	01005204 	movi	r4,328
    2050:	0001f980 	call	1f98 <UsbRead>
	UsbWrite (HPI_SIE2_MSG_ADR, 0);
    2054:	01005204 	movi	r4,328
    2058:	000b883a 	mov	r5,zero
    205c:	0001f440 	call	1f44 <UsbWrite>


	UsbWrite (HOST1_STAT_REG, 0xFFFF);
    2060:	01302414 	movui	r4,49296
    2064:	017fffd4 	movui	r5,65535
    2068:	0001f440 	call	1f44 <UsbWrite>
	UsbWrite (HOST2_STAT_REG, 0xFFFF);
    206c:	01302c14 	movui	r4,49328
    2070:	017fffd4 	movui	r5,65535
    2074:	0001f440 	call	1f44 <UsbWrite>
}
    2078:	e037883a 	mov	sp,fp
    207c:	dfc00117 	ldw	ra,4(sp)
    2080:	df000017 	ldw	fp,0(sp)
    2084:	dec00204 	addi	sp,sp,8
    2088:	f800283a 	ret

0000208c <UsbSetAddress>:


void UsbSetAddress()
{
    208c:	defffe04 	addi	sp,sp,-8
    2090:	dfc00115 	stw	ra,4(sp)
    2094:	df000015 	stw	fp,0(sp)
    2098:	d839883a 	mov	fp,sp
	//the starting address
	IO_write(HPI_ADDR,0x0500); //the start address
    209c:	01000084 	movi	r4,2
    20a0:	01414004 	movi	r5,1280
    20a4:	00002c80 	call	2c8 <IO_write>
	// TD #1: 6 writes
	IO_write(HPI_DATA,0x050C);
    20a8:	0009883a 	mov	r4,zero
    20ac:	01414304 	movi	r5,1292
    20b0:	00002c80 	call	2c8 <IO_write>
	IO_write(HPI_DATA,0x0008); //4 port number
    20b4:	0009883a 	mov	r4,zero
    20b8:	01400204 	movi	r5,8
    20bc:	00002c80 	call	2c8 <IO_write>
	// TASK: Complete with 4 more IOWR functions
	IO_write(HPI_DATA,0x00D0);
    20c0:	0009883a 	mov	r4,zero
    20c4:	01403404 	movi	r5,208
    20c8:	00002c80 	call	2c8 <IO_write>
	IO_write(HPI_DATA,0x0001);
    20cc:	0009883a 	mov	r4,zero
    20d0:	01400044 	movi	r5,1
    20d4:	00002c80 	call	2c8 <IO_write>
	IO_write(HPI_DATA,0x0013);
    20d8:	0009883a 	mov	r4,zero
    20dc:	014004c4 	movi	r5,19
    20e0:	00002c80 	call	2c8 <IO_write>
	IO_write(HPI_DATA,0x0514);
    20e4:	0009883a 	mov	r4,zero
    20e8:	01414504 	movi	r5,1300
    20ec:	00002c80 	call	2c8 <IO_write>
	// TD #2: 4 writes
	// TASK: Complete with 4 IOWR functions
	IO_write(HPI_DATA,0x0500);
    20f0:	0009883a 	mov	r4,zero
    20f4:	01414004 	movi	r5,1280
    20f8:	00002c80 	call	2c8 <IO_write>
	IO_write(HPI_DATA,0x0002);
    20fc:	0009883a 	mov	r4,zero
    2100:	01400084 	movi	r5,2
    2104:	00002c80 	call	2c8 <IO_write>
	IO_write(HPI_DATA,0x0000);
    2108:	0009883a 	mov	r4,zero
    210c:	000b883a 	mov	r5,zero
    2110:	00002c80 	call	2c8 <IO_write>
	IO_write(HPI_DATA,0x0000);
    2114:	0009883a 	mov	r4,zero
    2118:	000b883a 	mov	r5,zero
    211c:	00002c80 	call	2c8 <IO_write>
	// TD #3: 6 writes
	// TASK: Complete with 6 IOWR functions
	IO_write(HPI_DATA,0x0000); //
    2120:	0009883a 	mov	r4,zero
    2124:	000b883a 	mov	r5,zero
    2128:	00002c80 	call	2c8 <IO_write>
	IO_write(HPI_DATA,0x0000);//
    212c:	0009883a 	mov	r4,zero
    2130:	000b883a 	mov	r5,zero
    2134:	00002c80 	call	2c8 <IO_write>
	IO_write(HPI_DATA,0x0090);//
    2138:	0009883a 	mov	r4,zero
    213c:	01402404 	movi	r5,144
    2140:	00002c80 	call	2c8 <IO_write>
	IO_write(HPI_DATA,0x0041);
    2144:	0009883a 	mov	r4,zero
    2148:	01401044 	movi	r5,65
    214c:	00002c80 	call	2c8 <IO_write>
	IO_write(HPI_DATA,0x0013);
    2150:	0009883a 	mov	r4,zero
    2154:	014004c4 	movi	r5,19
    2158:	00002c80 	call	2c8 <IO_write>
	IO_write(HPI_DATA,0x0000);
    215c:	0009883a 	mov	r4,zero
    2160:	000b883a 	mov	r5,zero
    2164:	00002c80 	call	2c8 <IO_write>

	UsbWrite(HUSB_SIE1_pCurrentTDPtr,0x0500); //HUSB_SIE1_pCurrentTDPtr
    2168:	01006c04 	movi	r4,432
    216c:	01414004 	movi	r5,1280
    2170:	0001f440 	call	1f44 <UsbWrite>
}
    2174:	e037883a 	mov	sp,fp
    2178:	dfc00117 	ldw	ra,4(sp)
    217c:	df000017 	ldw	fp,0(sp)
    2180:	dec00204 	addi	sp,sp,8
    2184:	f800283a 	ret

00002188 <UsbGetDeviceDesc1>:


void UsbGetDeviceDesc1()
{
    2188:	defffe04 	addi	sp,sp,-8
    218c:	dfc00115 	stw	ra,4(sp)
    2190:	df000015 	stw	fp,0(sp)
    2194:	d839883a 	mov	fp,sp
	//the starting address
	IO_write(HPI_ADDR,0x0500); //the start address
    2198:	01000084 	movi	r4,2
    219c:	01414004 	movi	r5,1280
    21a0:	00002c80 	call	2c8 <IO_write>
	IO_write(HPI_DATA,0x050C);
    21a4:	0009883a 	mov	r4,zero
    21a8:	01414304 	movi	r5,1292
    21ac:	00002c80 	call	2c8 <IO_write>
	IO_write(HPI_DATA,0x0008); //4 port number
    21b0:	0009883a 	mov	r4,zero
    21b4:	01400204 	movi	r5,8
    21b8:	00002c80 	call	2c8 <IO_write>
	IO_write(HPI_DATA,0x02D0); //device address
    21bc:	0009883a 	mov	r4,zero
    21c0:	0140b404 	movi	r5,720
    21c4:	00002c80 	call	2c8 <IO_write>
	IO_write(HPI_DATA,0x0001);
    21c8:	0009883a 	mov	r4,zero
    21cc:	01400044 	movi	r5,1
    21d0:	00002c80 	call	2c8 <IO_write>
	IO_write(HPI_DATA,0x0013);
    21d4:	0009883a 	mov	r4,zero
    21d8:	014004c4 	movi	r5,19
    21dc:	00002c80 	call	2c8 <IO_write>
	IO_write(HPI_DATA,0x0514);
    21e0:	0009883a 	mov	r4,zero
    21e4:	01414504 	movi	r5,1300
    21e8:	00002c80 	call	2c8 <IO_write>

	//td content 4 bytes
	IO_write(HPI_DATA,0x0680);//c
    21ec:	0009883a 	mov	r4,zero
    21f0:	0141a004 	movi	r5,1664
    21f4:	00002c80 	call	2c8 <IO_write>
	IO_write(HPI_DATA,0x0100); //device 0x01
    21f8:	0009883a 	mov	r4,zero
    21fc:	01404004 	movi	r5,256
    2200:	00002c80 	call	2c8 <IO_write>
	IO_write(HPI_DATA,0x0000);
    2204:	0009883a 	mov	r4,zero
    2208:	000b883a 	mov	r5,zero
    220c:	00002c80 	call	2c8 <IO_write>
	IO_write(HPI_DATA,0x0008);
    2210:	0009883a 	mov	r4,zero
    2214:	01400204 	movi	r5,8
    2218:	00002c80 	call	2c8 <IO_write>

	//data phase IN
	IO_write(HPI_DATA,0x052C); //
    221c:	0009883a 	mov	r4,zero
    2220:	01414b04 	movi	r5,1324
    2224:	00002c80 	call	2c8 <IO_write>
	IO_write(HPI_DATA,0x0008);//
    2228:	0009883a 	mov	r4,zero
    222c:	01400204 	movi	r5,8
    2230:	00002c80 	call	2c8 <IO_write>
	IO_write(HPI_DATA,0x0290);//
    2234:	0009883a 	mov	r4,zero
    2238:	0140a404 	movi	r5,656
    223c:	00002c80 	call	2c8 <IO_write>
	IO_write(HPI_DATA,0x0041);
    2240:	0009883a 	mov	r4,zero
    2244:	01401044 	movi	r5,65
    2248:	00002c80 	call	2c8 <IO_write>
	IO_write(HPI_DATA,0x0013);
    224c:	0009883a 	mov	r4,zero
    2250:	014004c4 	movi	r5,19
    2254:	00002c80 	call	2c8 <IO_write>
	IO_write(HPI_DATA,0x0520);
    2258:	0009883a 	mov	r4,zero
    225c:	01414804 	movi	r5,1312
    2260:	00002c80 	call	2c8 <IO_write>

	//    //status phase
	IO_write(HPI_DATA,0x0000); //don't care
    2264:	0009883a 	mov	r4,zero
    2268:	000b883a 	mov	r5,zero
    226c:	00002c80 	call	2c8 <IO_write>
	IO_write(HPI_DATA,0x0000);//port number
    2270:	0009883a 	mov	r4,zero
    2274:	000b883a 	mov	r5,zero
    2278:	00002c80 	call	2c8 <IO_write>
	IO_write(HPI_DATA,0x0210);//device address
    227c:	0009883a 	mov	r4,zero
    2280:	01408404 	movi	r5,528
    2284:	00002c80 	call	2c8 <IO_write>
	IO_write(HPI_DATA,0x0041);
    2288:	0009883a 	mov	r4,zero
    228c:	01401044 	movi	r5,65
    2290:	00002c80 	call	2c8 <IO_write>
	IO_write(HPI_DATA,0x0013);
    2294:	0009883a 	mov	r4,zero
    2298:	014004c4 	movi	r5,19
    229c:	00002c80 	call	2c8 <IO_write>
	IO_write(HPI_DATA,0x0000);
    22a0:	0009883a 	mov	r4,zero
    22a4:	000b883a 	mov	r5,zero
    22a8:	00002c80 	call	2c8 <IO_write>

	UsbWrite(HUSB_SIE1_pCurrentTDPtr,0x0500); //HUSB_SIE1_pCurrentTDPtr
    22ac:	01006c04 	movi	r4,432
    22b0:	01414004 	movi	r5,1280
    22b4:	0001f440 	call	1f44 <UsbWrite>
}
    22b8:	e037883a 	mov	sp,fp
    22bc:	dfc00117 	ldw	ra,4(sp)
    22c0:	df000017 	ldw	fp,0(sp)
    22c4:	dec00204 	addi	sp,sp,8
    22c8:	f800283a 	ret

000022cc <UsbGetDeviceDesc2>:

void UsbGetDeviceDesc2()
{
    22cc:	defffe04 	addi	sp,sp,-8
    22d0:	dfc00115 	stw	ra,4(sp)
    22d4:	df000015 	stw	fp,0(sp)
    22d8:	d839883a 	mov	fp,sp
	//the starting address
	IO_write(HPI_ADDR,0x0500); //the start address
    22dc:	01000084 	movi	r4,2
    22e0:	01414004 	movi	r5,1280
    22e4:	00002c80 	call	2c8 <IO_write>
	IO_write(HPI_DATA,0x050C);
    22e8:	0009883a 	mov	r4,zero
    22ec:	01414304 	movi	r5,1292
    22f0:	00002c80 	call	2c8 <IO_write>
	IO_write(HPI_DATA,0x0008); //4 port number
    22f4:	0009883a 	mov	r4,zero
    22f8:	01400204 	movi	r5,8
    22fc:	00002c80 	call	2c8 <IO_write>
	IO_write(HPI_DATA,0x02D0); //device address
    2300:	0009883a 	mov	r4,zero
    2304:	0140b404 	movi	r5,720
    2308:	00002c80 	call	2c8 <IO_write>
	IO_write(HPI_DATA,0x0001);
    230c:	0009883a 	mov	r4,zero
    2310:	01400044 	movi	r5,1
    2314:	00002c80 	call	2c8 <IO_write>
	IO_write(HPI_DATA,0x0013);
    2318:	0009883a 	mov	r4,zero
    231c:	014004c4 	movi	r5,19
    2320:	00002c80 	call	2c8 <IO_write>
	IO_write(HPI_DATA,0x0514);
    2324:	0009883a 	mov	r4,zero
    2328:	01414504 	movi	r5,1300
    232c:	00002c80 	call	2c8 <IO_write>

	//td content 4 bytes
	IO_write(HPI_DATA,0x0680);//c
    2330:	0009883a 	mov	r4,zero
    2334:	0141a004 	movi	r5,1664
    2338:	00002c80 	call	2c8 <IO_write>
	IO_write(HPI_DATA,0x0100);//e //device 0x01
    233c:	0009883a 	mov	r4,zero
    2340:	01404004 	movi	r5,256
    2344:	00002c80 	call	2c8 <IO_write>
	IO_write(HPI_DATA,0x0000);//0
    2348:	0009883a 	mov	r4,zero
    234c:	000b883a 	mov	r5,zero
    2350:	00002c80 	call	2c8 <IO_write>
	IO_write(HPI_DATA,0x0012);//2
    2354:	0009883a 	mov	r4,zero
    2358:	01400484 	movi	r5,18
    235c:	00002c80 	call	2c8 <IO_write>

	//data phase IN-1
	IO_write(HPI_DATA,0x0544); //514
    2360:	0009883a 	mov	r4,zero
    2364:	01415104 	movi	r5,1348
    2368:	00002c80 	call	2c8 <IO_write>
	IO_write(HPI_DATA,0x0008);//6
    236c:	0009883a 	mov	r4,zero
    2370:	01400204 	movi	r5,8
    2374:	00002c80 	call	2c8 <IO_write>
	IO_write(HPI_DATA,0x0290);//8
    2378:	0009883a 	mov	r4,zero
    237c:	0140a404 	movi	r5,656
    2380:	00002c80 	call	2c8 <IO_write>
	IO_write(HPI_DATA,0x0041);//a
    2384:	0009883a 	mov	r4,zero
    2388:	01401044 	movi	r5,65
    238c:	00002c80 	call	2c8 <IO_write>
	IO_write(HPI_DATA,0x0013);//c
    2390:	0009883a 	mov	r4,zero
    2394:	014004c4 	movi	r5,19
    2398:	00002c80 	call	2c8 <IO_write>
	IO_write(HPI_DATA,0x0520);//e
    239c:	0009883a 	mov	r4,zero
    23a0:	01414804 	movi	r5,1312
    23a4:	00002c80 	call	2c8 <IO_write>

	//data phase IN-2
	IO_write(HPI_DATA,0x054c); //520
    23a8:	0009883a 	mov	r4,zero
    23ac:	01415304 	movi	r5,1356
    23b0:	00002c80 	call	2c8 <IO_write>
	IO_write(HPI_DATA,0x0008);//2
    23b4:	0009883a 	mov	r4,zero
    23b8:	01400204 	movi	r5,8
    23bc:	00002c80 	call	2c8 <IO_write>
	IO_write(HPI_DATA,0x0290);//4
    23c0:	0009883a 	mov	r4,zero
    23c4:	0140a404 	movi	r5,656
    23c8:	00002c80 	call	2c8 <IO_write>
	IO_write(HPI_DATA,0x0001);//6
    23cc:	0009883a 	mov	r4,zero
    23d0:	01400044 	movi	r5,1
    23d4:	00002c80 	call	2c8 <IO_write>
	IO_write(HPI_DATA,0x0013);//8
    23d8:	0009883a 	mov	r4,zero
    23dc:	014004c4 	movi	r5,19
    23e0:	00002c80 	call	2c8 <IO_write>
	IO_write(HPI_DATA,0x052c);//a
    23e4:	0009883a 	mov	r4,zero
    23e8:	01414b04 	movi	r5,1324
    23ec:	00002c80 	call	2c8 <IO_write>

	//data phase IN-3
	IO_write(HPI_DATA,0x0554); //c
    23f0:	0009883a 	mov	r4,zero
    23f4:	01415504 	movi	r5,1364
    23f8:	00002c80 	call	2c8 <IO_write>
	IO_write(HPI_DATA,0x0002);//e
    23fc:	0009883a 	mov	r4,zero
    2400:	01400084 	movi	r5,2
    2404:	00002c80 	call	2c8 <IO_write>
	IO_write(HPI_DATA,0x0290);//530
    2408:	0009883a 	mov	r4,zero
    240c:	0140a404 	movi	r5,656
    2410:	00002c80 	call	2c8 <IO_write>
	IO_write(HPI_DATA,0x0041);//2
    2414:	0009883a 	mov	r4,zero
    2418:	01401044 	movi	r5,65
    241c:	00002c80 	call	2c8 <IO_write>
	IO_write(HPI_DATA,0x0013);//4
    2420:	0009883a 	mov	r4,zero
    2424:	014004c4 	movi	r5,19
    2428:	00002c80 	call	2c8 <IO_write>
	IO_write(HPI_DATA,0x0538);//6
    242c:	0009883a 	mov	r4,zero
    2430:	01414e04 	movi	r5,1336
    2434:	00002c80 	call	2c8 <IO_write>

	//status phase
	IO_write(HPI_DATA,0x0000); //538
    2438:	0009883a 	mov	r4,zero
    243c:	000b883a 	mov	r5,zero
    2440:	00002c80 	call	2c8 <IO_write>
	IO_write(HPI_DATA,0x0000);//a
    2444:	0009883a 	mov	r4,zero
    2448:	000b883a 	mov	r5,zero
    244c:	00002c80 	call	2c8 <IO_write>
	IO_write(HPI_DATA,0x0210);//c
    2450:	0009883a 	mov	r4,zero
    2454:	01408404 	movi	r5,528
    2458:	00002c80 	call	2c8 <IO_write>
	IO_write(HPI_DATA,0x0041);//e
    245c:	0009883a 	mov	r4,zero
    2460:	01401044 	movi	r5,65
    2464:	00002c80 	call	2c8 <IO_write>
	IO_write(HPI_DATA,0x0013);//540
    2468:	0009883a 	mov	r4,zero
    246c:	014004c4 	movi	r5,19
    2470:	00002c80 	call	2c8 <IO_write>
	IO_write(HPI_DATA,0x0000);//2
    2474:	0009883a 	mov	r4,zero
    2478:	000b883a 	mov	r5,zero
    247c:	00002c80 	call	2c8 <IO_write>

	UsbWrite(HUSB_SIE1_pCurrentTDPtr,0x0500); //HUSB_SIE1_pCurrentTDPtr
    2480:	01006c04 	movi	r4,432
    2484:	01414004 	movi	r5,1280
    2488:	0001f440 	call	1f44 <UsbWrite>
}
    248c:	e037883a 	mov	sp,fp
    2490:	dfc00117 	ldw	ra,4(sp)
    2494:	df000017 	ldw	fp,0(sp)
    2498:	dec00204 	addi	sp,sp,8
    249c:	f800283a 	ret

000024a0 <UsbGetConfigDesc1>:


void UsbGetConfigDesc1()
{
    24a0:	defffe04 	addi	sp,sp,-8
    24a4:	dfc00115 	stw	ra,4(sp)
    24a8:	df000015 	stw	fp,0(sp)
    24ac:	d839883a 	mov	fp,sp
	//the starting address
	IO_write(HPI_ADDR,0x0500); //the start address
    24b0:	01000084 	movi	r4,2
    24b4:	01414004 	movi	r5,1280
    24b8:	00002c80 	call	2c8 <IO_write>
	IO_write(HPI_DATA,0x050C);
    24bc:	0009883a 	mov	r4,zero
    24c0:	01414304 	movi	r5,1292
    24c4:	00002c80 	call	2c8 <IO_write>
	IO_write(HPI_DATA,0x0008); //4 port number
    24c8:	0009883a 	mov	r4,zero
    24cc:	01400204 	movi	r5,8
    24d0:	00002c80 	call	2c8 <IO_write>
	IO_write(HPI_DATA,0x02D0); //device address
    24d4:	0009883a 	mov	r4,zero
    24d8:	0140b404 	movi	r5,720
    24dc:	00002c80 	call	2c8 <IO_write>
	IO_write(HPI_DATA,0x0001);
    24e0:	0009883a 	mov	r4,zero
    24e4:	01400044 	movi	r5,1
    24e8:	00002c80 	call	2c8 <IO_write>
	IO_write(HPI_DATA,0x0013);
    24ec:	0009883a 	mov	r4,zero
    24f0:	014004c4 	movi	r5,19
    24f4:	00002c80 	call	2c8 <IO_write>
	IO_write(HPI_DATA,0x0514);
    24f8:	0009883a 	mov	r4,zero
    24fc:	01414504 	movi	r5,1300
    2500:	00002c80 	call	2c8 <IO_write>

	//td content 4 bytes
	IO_write(HPI_DATA,0x0680);//c
    2504:	0009883a 	mov	r4,zero
    2508:	0141a004 	movi	r5,1664
    250c:	00002c80 	call	2c8 <IO_write>
	IO_write(HPI_DATA,0x0200);//e //config 0x02
    2510:	0009883a 	mov	r4,zero
    2514:	01408004 	movi	r5,512
    2518:	00002c80 	call	2c8 <IO_write>
	IO_write(HPI_DATA,0x0000);//0
    251c:	0009883a 	mov	r4,zero
    2520:	000b883a 	mov	r5,zero
    2524:	00002c80 	call	2c8 <IO_write>
	IO_write(HPI_DATA,0x0009);//2
    2528:	0009883a 	mov	r4,zero
    252c:	01400244 	movi	r5,9
    2530:	00002c80 	call	2c8 <IO_write>

	//data phase IN-1
	IO_write(HPI_DATA,0x0544); //514
    2534:	0009883a 	mov	r4,zero
    2538:	01415104 	movi	r5,1348
    253c:	00002c80 	call	2c8 <IO_write>
	IO_write(HPI_DATA,0x0008);//6
    2540:	0009883a 	mov	r4,zero
    2544:	01400204 	movi	r5,8
    2548:	00002c80 	call	2c8 <IO_write>
	IO_write(HPI_DATA,0x0290);//8
    254c:	0009883a 	mov	r4,zero
    2550:	0140a404 	movi	r5,656
    2554:	00002c80 	call	2c8 <IO_write>
	IO_write(HPI_DATA,0x0041);//a
    2558:	0009883a 	mov	r4,zero
    255c:	01401044 	movi	r5,65
    2560:	00002c80 	call	2c8 <IO_write>
	IO_write(HPI_DATA,0x0013);//c
    2564:	0009883a 	mov	r4,zero
    2568:	014004c4 	movi	r5,19
    256c:	00002c80 	call	2c8 <IO_write>
	IO_write(HPI_DATA,0x0520);//e
    2570:	0009883a 	mov	r4,zero
    2574:	01414804 	movi	r5,1312
    2578:	00002c80 	call	2c8 <IO_write>

	//data phase IN-2
	IO_write(HPI_DATA,0x054c); //520
    257c:	0009883a 	mov	r4,zero
    2580:	01415304 	movi	r5,1356
    2584:	00002c80 	call	2c8 <IO_write>
	IO_write(HPI_DATA,0x0001);//2
    2588:	0009883a 	mov	r4,zero
    258c:	01400044 	movi	r5,1
    2590:	00002c80 	call	2c8 <IO_write>
	IO_write(HPI_DATA,0x0290);//4
    2594:	0009883a 	mov	r4,zero
    2598:	0140a404 	movi	r5,656
    259c:	00002c80 	call	2c8 <IO_write>
	IO_write(HPI_DATA,0x0001);//6 //data0
    25a0:	0009883a 	mov	r4,zero
    25a4:	01400044 	movi	r5,1
    25a8:	00002c80 	call	2c8 <IO_write>
	IO_write(HPI_DATA,0x0013);//8
    25ac:	0009883a 	mov	r4,zero
    25b0:	014004c4 	movi	r5,19
    25b4:	00002c80 	call	2c8 <IO_write>
	IO_write(HPI_DATA,0x052c);//a
    25b8:	0009883a 	mov	r4,zero
    25bc:	01414b04 	movi	r5,1324
    25c0:	00002c80 	call	2c8 <IO_write>

	//status phase
	IO_write(HPI_DATA,0x0000); //52c
    25c4:	0009883a 	mov	r4,zero
    25c8:	000b883a 	mov	r5,zero
    25cc:	00002c80 	call	2c8 <IO_write>
	IO_write(HPI_DATA,0x0000);//e
    25d0:	0009883a 	mov	r4,zero
    25d4:	000b883a 	mov	r5,zero
    25d8:	00002c80 	call	2c8 <IO_write>
	IO_write(HPI_DATA,0x0210);//530
    25dc:	0009883a 	mov	r4,zero
    25e0:	01408404 	movi	r5,528
    25e4:	00002c80 	call	2c8 <IO_write>
	IO_write(HPI_DATA,0x0041);//2
    25e8:	0009883a 	mov	r4,zero
    25ec:	01401044 	movi	r5,65
    25f0:	00002c80 	call	2c8 <IO_write>
	IO_write(HPI_DATA,0x0013);//4
    25f4:	0009883a 	mov	r4,zero
    25f8:	014004c4 	movi	r5,19
    25fc:	00002c80 	call	2c8 <IO_write>
	IO_write(HPI_DATA,0x0000);//6
    2600:	0009883a 	mov	r4,zero
    2604:	000b883a 	mov	r5,zero
    2608:	00002c80 	call	2c8 <IO_write>

	UsbWrite(HUSB_SIE1_pCurrentTDPtr,0x0500); //HUSB_SIE1_pCurrentTDPtr
    260c:	01006c04 	movi	r4,432
    2610:	01414004 	movi	r5,1280
    2614:	0001f440 	call	1f44 <UsbWrite>
}
    2618:	e037883a 	mov	sp,fp
    261c:	dfc00117 	ldw	ra,4(sp)
    2620:	df000017 	ldw	fp,0(sp)
    2624:	dec00204 	addi	sp,sp,8
    2628:	f800283a 	ret

0000262c <UsbGetConfigDesc2>:


void UsbGetConfigDesc2()
{
    262c:	defffe04 	addi	sp,sp,-8
    2630:	dfc00115 	stw	ra,4(sp)
    2634:	df000015 	stw	fp,0(sp)
    2638:	d839883a 	mov	fp,sp
	//the starting address
	IO_write(HPI_ADDR,0x0500); //the start address
    263c:	01000084 	movi	r4,2
    2640:	01414004 	movi	r5,1280
    2644:	00002c80 	call	2c8 <IO_write>
	IO_write(HPI_DATA,0x050C);
    2648:	0009883a 	mov	r4,zero
    264c:	01414304 	movi	r5,1292
    2650:	00002c80 	call	2c8 <IO_write>
	IO_write(HPI_DATA,0x0008); //4 port number
    2654:	0009883a 	mov	r4,zero
    2658:	01400204 	movi	r5,8
    265c:	00002c80 	call	2c8 <IO_write>
	IO_write(HPI_DATA,0x02D0); //device address
    2660:	0009883a 	mov	r4,zero
    2664:	0140b404 	movi	r5,720
    2668:	00002c80 	call	2c8 <IO_write>
	IO_write(HPI_DATA,0x0001);
    266c:	0009883a 	mov	r4,zero
    2670:	01400044 	movi	r5,1
    2674:	00002c80 	call	2c8 <IO_write>
	IO_write(HPI_DATA,0x0013);
    2678:	0009883a 	mov	r4,zero
    267c:	014004c4 	movi	r5,19
    2680:	00002c80 	call	2c8 <IO_write>
	IO_write(HPI_DATA,0x0514);
    2684:	0009883a 	mov	r4,zero
    2688:	01414504 	movi	r5,1300
    268c:	00002c80 	call	2c8 <IO_write>

	//td content 4 bytes
	IO_write(HPI_DATA,0x0680);//c
    2690:	0009883a 	mov	r4,zero
    2694:	0141a004 	movi	r5,1664
    2698:	00002c80 	call	2c8 <IO_write>
	IO_write(HPI_DATA,0x0200);//e //config 0x02
    269c:	0009883a 	mov	r4,zero
    26a0:	01408004 	movi	r5,512
    26a4:	00002c80 	call	2c8 <IO_write>
	IO_write(HPI_DATA,0x0000);//0
    26a8:	0009883a 	mov	r4,zero
    26ac:	000b883a 	mov	r5,zero
    26b0:	00002c80 	call	2c8 <IO_write>
	IO_write(HPI_DATA,0x00FF);//2
    26b4:	0009883a 	mov	r4,zero
    26b8:	01403fc4 	movi	r5,255
    26bc:	00002c80 	call	2c8 <IO_write>

	//data phase IN-1
	IO_write(HPI_DATA,0x055c); //514
    26c0:	0009883a 	mov	r4,zero
    26c4:	01415704 	movi	r5,1372
    26c8:	00002c80 	call	2c8 <IO_write>
	IO_write(HPI_DATA,0x0008);//6
    26cc:	0009883a 	mov	r4,zero
    26d0:	01400204 	movi	r5,8
    26d4:	00002c80 	call	2c8 <IO_write>
	IO_write(HPI_DATA,0x0290);//8
    26d8:	0009883a 	mov	r4,zero
    26dc:	0140a404 	movi	r5,656
    26e0:	00002c80 	call	2c8 <IO_write>
	IO_write(HPI_DATA,0x0041);//a
    26e4:	0009883a 	mov	r4,zero
    26e8:	01401044 	movi	r5,65
    26ec:	00002c80 	call	2c8 <IO_write>
	IO_write(HPI_DATA,0x0013);//c
    26f0:	0009883a 	mov	r4,zero
    26f4:	014004c4 	movi	r5,19
    26f8:	00002c80 	call	2c8 <IO_write>
	IO_write(HPI_DATA,0x0520);//e
    26fc:	0009883a 	mov	r4,zero
    2700:	01414804 	movi	r5,1312
    2704:	00002c80 	call	2c8 <IO_write>

	//data phase IN-2
	IO_write(HPI_DATA,0x0564); //520
    2708:	0009883a 	mov	r4,zero
    270c:	01415904 	movi	r5,1380
    2710:	00002c80 	call	2c8 <IO_write>
	IO_write(HPI_DATA,0x0008);//2
    2714:	0009883a 	mov	r4,zero
    2718:	01400204 	movi	r5,8
    271c:	00002c80 	call	2c8 <IO_write>
	IO_write(HPI_DATA,0x0290);//4
    2720:	0009883a 	mov	r4,zero
    2724:	0140a404 	movi	r5,656
    2728:	00002c80 	call	2c8 <IO_write>
	IO_write(HPI_DATA,0x0001);//6 //data0
    272c:	0009883a 	mov	r4,zero
    2730:	01400044 	movi	r5,1
    2734:	00002c80 	call	2c8 <IO_write>
	IO_write(HPI_DATA,0x0013);//8
    2738:	0009883a 	mov	r4,zero
    273c:	014004c4 	movi	r5,19
    2740:	00002c80 	call	2c8 <IO_write>
	IO_write(HPI_DATA,0x052c);//a
    2744:	0009883a 	mov	r4,zero
    2748:	01414b04 	movi	r5,1324
    274c:	00002c80 	call	2c8 <IO_write>

	//data phase IN-3
	IO_write(HPI_DATA,0x056c); //52c
    2750:	0009883a 	mov	r4,zero
    2754:	01415b04 	movi	r5,1388
    2758:	00002c80 	call	2c8 <IO_write>
	IO_write(HPI_DATA,0x0008);//e
    275c:	0009883a 	mov	r4,zero
    2760:	01400204 	movi	r5,8
    2764:	00002c80 	call	2c8 <IO_write>
	IO_write(HPI_DATA,0x0290);//530
    2768:	0009883a 	mov	r4,zero
    276c:	0140a404 	movi	r5,656
    2770:	00002c80 	call	2c8 <IO_write>
	IO_write(HPI_DATA,0x0041);//2
    2774:	0009883a 	mov	r4,zero
    2778:	01401044 	movi	r5,65
    277c:	00002c80 	call	2c8 <IO_write>
	IO_write(HPI_DATA,0x0013);//4
    2780:	0009883a 	mov	r4,zero
    2784:	014004c4 	movi	r5,19
    2788:	00002c80 	call	2c8 <IO_write>
	IO_write(HPI_DATA,0x0538);//6
    278c:	0009883a 	mov	r4,zero
    2790:	01414e04 	movi	r5,1336
    2794:	00002c80 	call	2c8 <IO_write>

	//data phase IN-4
	IO_write(HPI_DATA,0x0574); //538
    2798:	0009883a 	mov	r4,zero
    279c:	01415d04 	movi	r5,1396
    27a0:	00002c80 	call	2c8 <IO_write>
	IO_write(HPI_DATA,0x0008);//a
    27a4:	0009883a 	mov	r4,zero
    27a8:	01400204 	movi	r5,8
    27ac:	00002c80 	call	2c8 <IO_write>
	IO_write(HPI_DATA,0x0290);//c
    27b0:	0009883a 	mov	r4,zero
    27b4:	0140a404 	movi	r5,656
    27b8:	00002c80 	call	2c8 <IO_write>
	IO_write(HPI_DATA,0x0001);//e //data0
    27bc:	0009883a 	mov	r4,zero
    27c0:	01400044 	movi	r5,1
    27c4:	00002c80 	call	2c8 <IO_write>
	IO_write(HPI_DATA,0x0013);//540
    27c8:	0009883a 	mov	r4,zero
    27cc:	014004c4 	movi	r5,19
    27d0:	00002c80 	call	2c8 <IO_write>
	IO_write(HPI_DATA,0x0544);//2
    27d4:	0009883a 	mov	r4,zero
    27d8:	01415104 	movi	r5,1348
    27dc:	00002c80 	call	2c8 <IO_write>

	//data phase IN-5
	IO_write(HPI_DATA,0x057c); //544
    27e0:	0009883a 	mov	r4,zero
    27e4:	01415f04 	movi	r5,1404
    27e8:	00002c80 	call	2c8 <IO_write>
	IO_write(HPI_DATA,0x0002);//6
    27ec:	0009883a 	mov	r4,zero
    27f0:	01400084 	movi	r5,2
    27f4:	00002c80 	call	2c8 <IO_write>
	IO_write(HPI_DATA,0x0290);//8
    27f8:	0009883a 	mov	r4,zero
    27fc:	0140a404 	movi	r5,656
    2800:	00002c80 	call	2c8 <IO_write>
	IO_write(HPI_DATA,0x0041);//a //data1
    2804:	0009883a 	mov	r4,zero
    2808:	01401044 	movi	r5,65
    280c:	00002c80 	call	2c8 <IO_write>
	IO_write(HPI_DATA,0x0013);//c
    2810:	0009883a 	mov	r4,zero
    2814:	014004c4 	movi	r5,19
    2818:	00002c80 	call	2c8 <IO_write>
	IO_write(HPI_DATA,0x0550);//e
    281c:	0009883a 	mov	r4,zero
    2820:	01415404 	movi	r5,1360
    2824:	00002c80 	call	2c8 <IO_write>

	//status phase
	IO_write(HPI_DATA,0x0000); //550
    2828:	0009883a 	mov	r4,zero
    282c:	000b883a 	mov	r5,zero
    2830:	00002c80 	call	2c8 <IO_write>
	IO_write(HPI_DATA,0x0000);//2
    2834:	0009883a 	mov	r4,zero
    2838:	000b883a 	mov	r5,zero
    283c:	00002c80 	call	2c8 <IO_write>
	IO_write(HPI_DATA,0x0210);//4
    2840:	0009883a 	mov	r4,zero
    2844:	01408404 	movi	r5,528
    2848:	00002c80 	call	2c8 <IO_write>
	IO_write(HPI_DATA,0x0041);//6
    284c:	0009883a 	mov	r4,zero
    2850:	01401044 	movi	r5,65
    2854:	00002c80 	call	2c8 <IO_write>
	IO_write(HPI_DATA,0x0013);//8
    2858:	0009883a 	mov	r4,zero
    285c:	014004c4 	movi	r5,19
    2860:	00002c80 	call	2c8 <IO_write>
	IO_write(HPI_DATA,0x0000);//a
    2864:	0009883a 	mov	r4,zero
    2868:	000b883a 	mov	r5,zero
    286c:	00002c80 	call	2c8 <IO_write>

	UsbWrite(HUSB_SIE1_pCurrentTDPtr,0x0500); //HUSB_SIE1_pCurrentTDPtr
    2870:	01006c04 	movi	r4,432
    2874:	01414004 	movi	r5,1280
    2878:	0001f440 	call	1f44 <UsbWrite>
}
    287c:	e037883a 	mov	sp,fp
    2880:	dfc00117 	ldw	ra,4(sp)
    2884:	df000017 	ldw	fp,0(sp)
    2888:	dec00204 	addi	sp,sp,8
    288c:	f800283a 	ret

00002890 <UsbSetConfig>:

void UsbSetConfig()
{
    2890:	defffe04 	addi	sp,sp,-8
    2894:	dfc00115 	stw	ra,4(sp)
    2898:	df000015 	stw	fp,0(sp)
    289c:	d839883a 	mov	fp,sp
	//the starting address
	IO_write(HPI_ADDR,0x0500); //the start address
    28a0:	01000084 	movi	r4,2
    28a4:	01414004 	movi	r5,1280
    28a8:	00002c80 	call	2c8 <IO_write>
	IO_write(HPI_DATA,0x050C);
    28ac:	0009883a 	mov	r4,zero
    28b0:	01414304 	movi	r5,1292
    28b4:	00002c80 	call	2c8 <IO_write>
	IO_write(HPI_DATA,0x0008); //4 port number
    28b8:	0009883a 	mov	r4,zero
    28bc:	01400204 	movi	r5,8
    28c0:	00002c80 	call	2c8 <IO_write>
	IO_write(HPI_DATA,0x02D0); //port address
    28c4:	0009883a 	mov	r4,zero
    28c8:	0140b404 	movi	r5,720
    28cc:	00002c80 	call	2c8 <IO_write>
	IO_write(HPI_DATA,0x0001);
    28d0:	0009883a 	mov	r4,zero
    28d4:	01400044 	movi	r5,1
    28d8:	00002c80 	call	2c8 <IO_write>
	IO_write(HPI_DATA,0x0013);
    28dc:	0009883a 	mov	r4,zero
    28e0:	014004c4 	movi	r5,19
    28e4:	00002c80 	call	2c8 <IO_write>
	IO_write(HPI_DATA,0x0514);
    28e8:	0009883a 	mov	r4,zero
    28ec:	01414504 	movi	r5,1300
    28f0:	00002c80 	call	2c8 <IO_write>

	//td content 4 bytes
	IO_write(HPI_DATA,0x0900);
    28f4:	0009883a 	mov	r4,zero
    28f8:	01424004 	movi	r5,2304
    28fc:	00002c80 	call	2c8 <IO_write>
	IO_write(HPI_DATA,0x0001);//device address
    2900:	0009883a 	mov	r4,zero
    2904:	01400044 	movi	r5,1
    2908:	00002c80 	call	2c8 <IO_write>
	IO_write(HPI_DATA,0x0000);
    290c:	0009883a 	mov	r4,zero
    2910:	000b883a 	mov	r5,zero
    2914:	00002c80 	call	2c8 <IO_write>
	IO_write(HPI_DATA,0x0000);
    2918:	0009883a 	mov	r4,zero
    291c:	000b883a 	mov	r5,zero
    2920:	00002c80 	call	2c8 <IO_write>
	//in packet
	IO_write(HPI_DATA,0x0000); //don't care
    2924:	0009883a 	mov	r4,zero
    2928:	000b883a 	mov	r5,zero
    292c:	00002c80 	call	2c8 <IO_write>
	IO_write(HPI_DATA,0x0000);//port number
    2930:	0009883a 	mov	r4,zero
    2934:	000b883a 	mov	r5,zero
    2938:	00002c80 	call	2c8 <IO_write>
	IO_write(HPI_DATA,0x0290);//device address
    293c:	0009883a 	mov	r4,zero
    2940:	0140a404 	movi	r5,656
    2944:	00002c80 	call	2c8 <IO_write>
	IO_write(HPI_DATA,0x0041); //data 1
    2948:	0009883a 	mov	r4,zero
    294c:	01401044 	movi	r5,65
    2950:	00002c80 	call	2c8 <IO_write>
	IO_write(HPI_DATA,0x0013);
    2954:	0009883a 	mov	r4,zero
    2958:	014004c4 	movi	r5,19
    295c:	00002c80 	call	2c8 <IO_write>
	IO_write(HPI_DATA,0x0000);
    2960:	0009883a 	mov	r4,zero
    2964:	000b883a 	mov	r5,zero
    2968:	00002c80 	call	2c8 <IO_write>

	UsbWrite(HUSB_SIE1_pCurrentTDPtr,0x0500); //HUSB_SIE1_pCurrentTDPtr
    296c:	01006c04 	movi	r4,432
    2970:	01414004 	movi	r5,1280
    2974:	0001f440 	call	1f44 <UsbWrite>

}
    2978:	e037883a 	mov	sp,fp
    297c:	dfc00117 	ldw	ra,4(sp)
    2980:	df000017 	ldw	fp,0(sp)
    2984:	dec00204 	addi	sp,sp,8
    2988:	f800283a 	ret

0000298c <UsbClassRequest>:

void UsbClassRequest()
{
    298c:	defffe04 	addi	sp,sp,-8
    2990:	dfc00115 	stw	ra,4(sp)
    2994:	df000015 	stw	fp,0(sp)
    2998:	d839883a 	mov	fp,sp
	//the starting address
	IO_write(HPI_ADDR,0x0500); //the start address
    299c:	01000084 	movi	r4,2
    29a0:	01414004 	movi	r5,1280
    29a4:	00002c80 	call	2c8 <IO_write>
	IO_write(HPI_DATA,0x050C);
    29a8:	0009883a 	mov	r4,zero
    29ac:	01414304 	movi	r5,1292
    29b0:	00002c80 	call	2c8 <IO_write>
	IO_write(HPI_DATA,0x0008); //4 port number
    29b4:	0009883a 	mov	r4,zero
    29b8:	01400204 	movi	r5,8
    29bc:	00002c80 	call	2c8 <IO_write>
	IO_write(HPI_DATA,0x02D0); //port address
    29c0:	0009883a 	mov	r4,zero
    29c4:	0140b404 	movi	r5,720
    29c8:	00002c80 	call	2c8 <IO_write>
	IO_write(HPI_DATA,0x0001);
    29cc:	0009883a 	mov	r4,zero
    29d0:	01400044 	movi	r5,1
    29d4:	00002c80 	call	2c8 <IO_write>
	IO_write(HPI_DATA,0x0013);
    29d8:	0009883a 	mov	r4,zero
    29dc:	014004c4 	movi	r5,19
    29e0:	00002c80 	call	2c8 <IO_write>
	IO_write(HPI_DATA,0x0514);
    29e4:	0009883a 	mov	r4,zero
    29e8:	01414504 	movi	r5,1300
    29ec:	00002c80 	call	2c8 <IO_write>

	//td content 4 bytes
	IO_write(HPI_DATA,0x0A21);
    29f0:	0009883a 	mov	r4,zero
    29f4:	01428844 	movi	r5,2593
    29f8:	00002c80 	call	2c8 <IO_write>
	IO_write(HPI_DATA,0x0000);//device address
    29fc:	0009883a 	mov	r4,zero
    2a00:	000b883a 	mov	r5,zero
    2a04:	00002c80 	call	2c8 <IO_write>
	IO_write(HPI_DATA,0x0000);
    2a08:	0009883a 	mov	r4,zero
    2a0c:	000b883a 	mov	r5,zero
    2a10:	00002c80 	call	2c8 <IO_write>
	IO_write(HPI_DATA,0x0000);
    2a14:	0009883a 	mov	r4,zero
    2a18:	000b883a 	mov	r5,zero
    2a1c:	00002c80 	call	2c8 <IO_write>
	//in packet
	IO_write(HPI_DATA,0x0000); //don't care
    2a20:	0009883a 	mov	r4,zero
    2a24:	000b883a 	mov	r5,zero
    2a28:	00002c80 	call	2c8 <IO_write>
	IO_write(HPI_DATA,0x0000);//port number /data length
    2a2c:	0009883a 	mov	r4,zero
    2a30:	000b883a 	mov	r5,zero
    2a34:	00002c80 	call	2c8 <IO_write>
	IO_write(HPI_DATA,0x0290);//device address
    2a38:	0009883a 	mov	r4,zero
    2a3c:	0140a404 	movi	r5,656
    2a40:	00002c80 	call	2c8 <IO_write>
	IO_write(HPI_DATA,0x0041); //data 1
    2a44:	0009883a 	mov	r4,zero
    2a48:	01401044 	movi	r5,65
    2a4c:	00002c80 	call	2c8 <IO_write>
	IO_write(HPI_DATA,0x0013);
    2a50:	0009883a 	mov	r4,zero
    2a54:	014004c4 	movi	r5,19
    2a58:	00002c80 	call	2c8 <IO_write>
	IO_write(HPI_DATA,0x0000);
    2a5c:	0009883a 	mov	r4,zero
    2a60:	000b883a 	mov	r5,zero
    2a64:	00002c80 	call	2c8 <IO_write>

	UsbWrite(HUSB_SIE1_pCurrentTDPtr,0x0500); //HUSB_SIE1_pCurrentTDPtr
    2a68:	01006c04 	movi	r4,432
    2a6c:	01414004 	movi	r5,1280
    2a70:	0001f440 	call	1f44 <UsbWrite>
}
    2a74:	e037883a 	mov	sp,fp
    2a78:	dfc00117 	ldw	ra,4(sp)
    2a7c:	df000017 	ldw	fp,0(sp)
    2a80:	dec00204 	addi	sp,sp,8
    2a84:	f800283a 	ret

00002a88 <UsbGetHidDesc>:


void UsbGetHidDesc()
{
    2a88:	defffe04 	addi	sp,sp,-8
    2a8c:	dfc00115 	stw	ra,4(sp)
    2a90:	df000015 	stw	fp,0(sp)
    2a94:	d839883a 	mov	fp,sp
	//the starting address
	IO_write(HPI_ADDR,0x0500); //the start address
    2a98:	01000084 	movi	r4,2
    2a9c:	01414004 	movi	r5,1280
    2aa0:	00002c80 	call	2c8 <IO_write>
	IO_write(HPI_DATA,0x050C);
    2aa4:	0009883a 	mov	r4,zero
    2aa8:	01414304 	movi	r5,1292
    2aac:	00002c80 	call	2c8 <IO_write>
	IO_write(HPI_DATA,0x0008); //4 port number
    2ab0:	0009883a 	mov	r4,zero
    2ab4:	01400204 	movi	r5,8
    2ab8:	00002c80 	call	2c8 <IO_write>
	IO_write(HPI_DATA,0x02D0); //port address
    2abc:	0009883a 	mov	r4,zero
    2ac0:	0140b404 	movi	r5,720
    2ac4:	00002c80 	call	2c8 <IO_write>
	IO_write(HPI_DATA,0x0001);
    2ac8:	0009883a 	mov	r4,zero
    2acc:	01400044 	movi	r5,1
    2ad0:	00002c80 	call	2c8 <IO_write>
	IO_write(HPI_DATA,0x0013);
    2ad4:	0009883a 	mov	r4,zero
    2ad8:	014004c4 	movi	r5,19
    2adc:	00002c80 	call	2c8 <IO_write>
	IO_write(HPI_DATA,0x0514);
    2ae0:	0009883a 	mov	r4,zero
    2ae4:	01414504 	movi	r5,1300
    2ae8:	00002c80 	call	2c8 <IO_write>

	//td content 4 bytes
	IO_write(HPI_DATA,0x0681);//c
    2aec:	0009883a 	mov	r4,zero
    2af0:	0141a044 	movi	r5,1665
    2af4:	00002c80 	call	2c8 <IO_write>
	IO_write(HPI_DATA,0x2100);//e //HID 0x21
    2af8:	0009883a 	mov	r4,zero
    2afc:	01484004 	movi	r5,8448
    2b00:	00002c80 	call	2c8 <IO_write>
	IO_write(HPI_DATA,0x0000);//0
    2b04:	0009883a 	mov	r4,zero
    2b08:	000b883a 	mov	r5,zero
    2b0c:	00002c80 	call	2c8 <IO_write>
	IO_write(HPI_DATA,0x007B);//2
    2b10:	0009883a 	mov	r4,zero
    2b14:	01401ec4 	movi	r5,123
    2b18:	00002c80 	call	2c8 <IO_write>

	//data phase IN-1
	IO_write(HPI_DATA,0x0544); //514
    2b1c:	0009883a 	mov	r4,zero
    2b20:	01415104 	movi	r5,1348
    2b24:	00002c80 	call	2c8 <IO_write>
	IO_write(HPI_DATA,0x0008);//6
    2b28:	0009883a 	mov	r4,zero
    2b2c:	01400204 	movi	r5,8
    2b30:	00002c80 	call	2c8 <IO_write>
	IO_write(HPI_DATA,0x0290);//8
    2b34:	0009883a 	mov	r4,zero
    2b38:	0140a404 	movi	r5,656
    2b3c:	00002c80 	call	2c8 <IO_write>
	IO_write(HPI_DATA,0x0041);//a
    2b40:	0009883a 	mov	r4,zero
    2b44:	01401044 	movi	r5,65
    2b48:	00002c80 	call	2c8 <IO_write>
	IO_write(HPI_DATA,0x0013);//c
    2b4c:	0009883a 	mov	r4,zero
    2b50:	014004c4 	movi	r5,19
    2b54:	00002c80 	call	2c8 <IO_write>
	IO_write(HPI_DATA,0x0520);//e
    2b58:	0009883a 	mov	r4,zero
    2b5c:	01414804 	movi	r5,1312
    2b60:	00002c80 	call	2c8 <IO_write>

	//status phase
	IO_write(HPI_DATA,0x0000); //52c
    2b64:	0009883a 	mov	r4,zero
    2b68:	000b883a 	mov	r5,zero
    2b6c:	00002c80 	call	2c8 <IO_write>
	IO_write(HPI_DATA,0x0000);//e
    2b70:	0009883a 	mov	r4,zero
    2b74:	000b883a 	mov	r5,zero
    2b78:	00002c80 	call	2c8 <IO_write>
	IO_write(HPI_DATA,0x0210);//530
    2b7c:	0009883a 	mov	r4,zero
    2b80:	01408404 	movi	r5,528
    2b84:	00002c80 	call	2c8 <IO_write>
	IO_write(HPI_DATA,0x0041);//2
    2b88:	0009883a 	mov	r4,zero
    2b8c:	01401044 	movi	r5,65
    2b90:	00002c80 	call	2c8 <IO_write>
	IO_write(HPI_DATA,0x0013);//4
    2b94:	0009883a 	mov	r4,zero
    2b98:	014004c4 	movi	r5,19
    2b9c:	00002c80 	call	2c8 <IO_write>
	IO_write(HPI_DATA,0x0000);//6
    2ba0:	0009883a 	mov	r4,zero
    2ba4:	000b883a 	mov	r5,zero
    2ba8:	00002c80 	call	2c8 <IO_write>

	UsbWrite(HUSB_SIE1_pCurrentTDPtr,0x0500); //HUSB_SIE1_pCurrentTDPtr
    2bac:	01006c04 	movi	r4,432
    2bb0:	01414004 	movi	r5,1280
    2bb4:	0001f440 	call	1f44 <UsbWrite>

}
    2bb8:	e037883a 	mov	sp,fp
    2bbc:	dfc00117 	ldw	ra,4(sp)
    2bc0:	df000017 	ldw	fp,0(sp)
    2bc4:	dec00204 	addi	sp,sp,8
    2bc8:	f800283a 	ret

00002bcc <UsbGetReportDesc>:


void UsbGetReportDesc()
{
    2bcc:	defffe04 	addi	sp,sp,-8
    2bd0:	dfc00115 	stw	ra,4(sp)
    2bd4:	df000015 	stw	fp,0(sp)
    2bd8:	d839883a 	mov	fp,sp
	//the starting address
	IO_write(HPI_ADDR,0x0500); //the start address
    2bdc:	01000084 	movi	r4,2
    2be0:	01414004 	movi	r5,1280
    2be4:	00002c80 	call	2c8 <IO_write>
	IO_write(HPI_DATA,0x050C);
    2be8:	0009883a 	mov	r4,zero
    2bec:	01414304 	movi	r5,1292
    2bf0:	00002c80 	call	2c8 <IO_write>
	IO_write(HPI_DATA,0x0008); //4 port number
    2bf4:	0009883a 	mov	r4,zero
    2bf8:	01400204 	movi	r5,8
    2bfc:	00002c80 	call	2c8 <IO_write>
	IO_write(HPI_DATA,0x02D0); //device address
    2c00:	0009883a 	mov	r4,zero
    2c04:	0140b404 	movi	r5,720
    2c08:	00002c80 	call	2c8 <IO_write>
	IO_write(HPI_DATA,0x0001);
    2c0c:	0009883a 	mov	r4,zero
    2c10:	01400044 	movi	r5,1
    2c14:	00002c80 	call	2c8 <IO_write>
	IO_write(HPI_DATA,0x0013);
    2c18:	0009883a 	mov	r4,zero
    2c1c:	014004c4 	movi	r5,19
    2c20:	00002c80 	call	2c8 <IO_write>
	IO_write(HPI_DATA,0x0514);
    2c24:	0009883a 	mov	r4,zero
    2c28:	01414504 	movi	r5,1300
    2c2c:	00002c80 	call	2c8 <IO_write>

	//td content 4 bytes
	IO_write(HPI_DATA,0x0681);//c
    2c30:	0009883a 	mov	r4,zero
    2c34:	0141a044 	movi	r5,1665
    2c38:	00002c80 	call	2c8 <IO_write>
	IO_write(HPI_DATA,0x2200);//e //report 0x22
    2c3c:	0009883a 	mov	r4,zero
    2c40:	01488004 	movi	r5,8704
    2c44:	00002c80 	call	2c8 <IO_write>
	IO_write(HPI_DATA,0x0000);//0
    2c48:	0009883a 	mov	r4,zero
    2c4c:	000b883a 	mov	r5,zero
    2c50:	00002c80 	call	2c8 <IO_write>
	IO_write(HPI_DATA,0x007B);//2
    2c54:	0009883a 	mov	r4,zero
    2c58:	01401ec4 	movi	r5,123
    2c5c:	00002c80 	call	2c8 <IO_write>

	//data phase IN-1
	IO_write(HPI_DATA,0x0580); //514
    2c60:	0009883a 	mov	r4,zero
    2c64:	01416004 	movi	r5,1408
    2c68:	00002c80 	call	2c8 <IO_write>
	IO_write(HPI_DATA,0x0008);//6
    2c6c:	0009883a 	mov	r4,zero
    2c70:	01400204 	movi	r5,8
    2c74:	00002c80 	call	2c8 <IO_write>
	IO_write(HPI_DATA,0x0290);//8
    2c78:	0009883a 	mov	r4,zero
    2c7c:	0140a404 	movi	r5,656
    2c80:	00002c80 	call	2c8 <IO_write>
	IO_write(HPI_DATA,0x0041);//a
    2c84:	0009883a 	mov	r4,zero
    2c88:	01401044 	movi	r5,65
    2c8c:	00002c80 	call	2c8 <IO_write>
	IO_write(HPI_DATA,0x0013);//c
    2c90:	0009883a 	mov	r4,zero
    2c94:	014004c4 	movi	r5,19
    2c98:	00002c80 	call	2c8 <IO_write>
	IO_write(HPI_DATA,0x0520);//e
    2c9c:	0009883a 	mov	r4,zero
    2ca0:	01414804 	movi	r5,1312
    2ca4:	00002c80 	call	2c8 <IO_write>

	//data phase IN-2
	IO_write(HPI_DATA,0x0588); //520
    2ca8:	0009883a 	mov	r4,zero
    2cac:	01416204 	movi	r5,1416
    2cb0:	00002c80 	call	2c8 <IO_write>
	IO_write(HPI_DATA,0x0008);//2
    2cb4:	0009883a 	mov	r4,zero
    2cb8:	01400204 	movi	r5,8
    2cbc:	00002c80 	call	2c8 <IO_write>
	IO_write(HPI_DATA,0x0290);//4
    2cc0:	0009883a 	mov	r4,zero
    2cc4:	0140a404 	movi	r5,656
    2cc8:	00002c80 	call	2c8 <IO_write>
	IO_write(HPI_DATA,0x0001);//6 //data0
    2ccc:	0009883a 	mov	r4,zero
    2cd0:	01400044 	movi	r5,1
    2cd4:	00002c80 	call	2c8 <IO_write>
	IO_write(HPI_DATA,0x0013);//8
    2cd8:	0009883a 	mov	r4,zero
    2cdc:	014004c4 	movi	r5,19
    2ce0:	00002c80 	call	2c8 <IO_write>
	IO_write(HPI_DATA,0x052c);//a
    2ce4:	0009883a 	mov	r4,zero
    2ce8:	01414b04 	movi	r5,1324
    2cec:	00002c80 	call	2c8 <IO_write>

	//data phase IN-3
	IO_write(HPI_DATA,0x0590); //52c
    2cf0:	0009883a 	mov	r4,zero
    2cf4:	01416404 	movi	r5,1424
    2cf8:	00002c80 	call	2c8 <IO_write>
	IO_write(HPI_DATA,0x0008);//e
    2cfc:	0009883a 	mov	r4,zero
    2d00:	01400204 	movi	r5,8
    2d04:	00002c80 	call	2c8 <IO_write>
	IO_write(HPI_DATA,0x0290);//530
    2d08:	0009883a 	mov	r4,zero
    2d0c:	0140a404 	movi	r5,656
    2d10:	00002c80 	call	2c8 <IO_write>
	IO_write(HPI_DATA,0x0041);//2
    2d14:	0009883a 	mov	r4,zero
    2d18:	01401044 	movi	r5,65
    2d1c:	00002c80 	call	2c8 <IO_write>
	IO_write(HPI_DATA,0x0013);//4
    2d20:	0009883a 	mov	r4,zero
    2d24:	014004c4 	movi	r5,19
    2d28:	00002c80 	call	2c8 <IO_write>
	IO_write(HPI_DATA,0x0538);//6
    2d2c:	0009883a 	mov	r4,zero
    2d30:	01414e04 	movi	r5,1336
    2d34:	00002c80 	call	2c8 <IO_write>

	//data phase IN-4
	IO_write(HPI_DATA,0x0598); //538
    2d38:	0009883a 	mov	r4,zero
    2d3c:	01416604 	movi	r5,1432
    2d40:	00002c80 	call	2c8 <IO_write>
	IO_write(HPI_DATA,0x0008);//a
    2d44:	0009883a 	mov	r4,zero
    2d48:	01400204 	movi	r5,8
    2d4c:	00002c80 	call	2c8 <IO_write>
	IO_write(HPI_DATA,0x0290);//c
    2d50:	0009883a 	mov	r4,zero
    2d54:	0140a404 	movi	r5,656
    2d58:	00002c80 	call	2c8 <IO_write>
	IO_write(HPI_DATA,0x0001);//e //data0
    2d5c:	0009883a 	mov	r4,zero
    2d60:	01400044 	movi	r5,1
    2d64:	00002c80 	call	2c8 <IO_write>
	IO_write(HPI_DATA,0x0013);//540
    2d68:	0009883a 	mov	r4,zero
    2d6c:	014004c4 	movi	r5,19
    2d70:	00002c80 	call	2c8 <IO_write>
	IO_write(HPI_DATA,0x0544);//2
    2d74:	0009883a 	mov	r4,zero
    2d78:	01415104 	movi	r5,1348
    2d7c:	00002c80 	call	2c8 <IO_write>

	//data phase IN-5
	IO_write(HPI_DATA,0x05a0); //544
    2d80:	0009883a 	mov	r4,zero
    2d84:	01416804 	movi	r5,1440
    2d88:	00002c80 	call	2c8 <IO_write>
	IO_write(HPI_DATA,0x0008);//6
    2d8c:	0009883a 	mov	r4,zero
    2d90:	01400204 	movi	r5,8
    2d94:	00002c80 	call	2c8 <IO_write>
	IO_write(HPI_DATA,0x0290);//8
    2d98:	0009883a 	mov	r4,zero
    2d9c:	0140a404 	movi	r5,656
    2da0:	00002c80 	call	2c8 <IO_write>
	IO_write(HPI_DATA,0x0041);//a //data1
    2da4:	0009883a 	mov	r4,zero
    2da8:	01401044 	movi	r5,65
    2dac:	00002c80 	call	2c8 <IO_write>
	IO_write(HPI_DATA,0x0013);//c
    2db0:	0009883a 	mov	r4,zero
    2db4:	014004c4 	movi	r5,19
    2db8:	00002c80 	call	2c8 <IO_write>
	IO_write(HPI_DATA,0x0550);//e
    2dbc:	0009883a 	mov	r4,zero
    2dc0:	01415404 	movi	r5,1360
    2dc4:	00002c80 	call	2c8 <IO_write>

	//data phase IN-6
	IO_write(HPI_DATA,0x05a8); //550
    2dc8:	0009883a 	mov	r4,zero
    2dcc:	01416a04 	movi	r5,1448
    2dd0:	00002c80 	call	2c8 <IO_write>
	IO_write(HPI_DATA,0x0008);//2
    2dd4:	0009883a 	mov	r4,zero
    2dd8:	01400204 	movi	r5,8
    2ddc:	00002c80 	call	2c8 <IO_write>
	IO_write(HPI_DATA,0x0290);//4
    2de0:	0009883a 	mov	r4,zero
    2de4:	0140a404 	movi	r5,656
    2de8:	00002c80 	call	2c8 <IO_write>
	IO_write(HPI_DATA,0x0001);//6 //data0
    2dec:	0009883a 	mov	r4,zero
    2df0:	01400044 	movi	r5,1
    2df4:	00002c80 	call	2c8 <IO_write>
	IO_write(HPI_DATA,0x0013);//8
    2df8:	0009883a 	mov	r4,zero
    2dfc:	014004c4 	movi	r5,19
    2e00:	00002c80 	call	2c8 <IO_write>
	IO_write(HPI_DATA,0x055c);//a
    2e04:	0009883a 	mov	r4,zero
    2e08:	01415704 	movi	r5,1372
    2e0c:	00002c80 	call	2c8 <IO_write>

	//data phase IN-7
	IO_write(HPI_DATA,0x05b0); //c
    2e10:	0009883a 	mov	r4,zero
    2e14:	01416c04 	movi	r5,1456
    2e18:	00002c80 	call	2c8 <IO_write>
	IO_write(HPI_DATA,0x0008);//e
    2e1c:	0009883a 	mov	r4,zero
    2e20:	01400204 	movi	r5,8
    2e24:	00002c80 	call	2c8 <IO_write>
	IO_write(HPI_DATA,0x0290);//560
    2e28:	0009883a 	mov	r4,zero
    2e2c:	0140a404 	movi	r5,656
    2e30:	00002c80 	call	2c8 <IO_write>
	IO_write(HPI_DATA,0x0041);//2 //data1
    2e34:	0009883a 	mov	r4,zero
    2e38:	01401044 	movi	r5,65
    2e3c:	00002c80 	call	2c8 <IO_write>
	IO_write(HPI_DATA,0x0013);//4
    2e40:	0009883a 	mov	r4,zero
    2e44:	014004c4 	movi	r5,19
    2e48:	00002c80 	call	2c8 <IO_write>
	IO_write(HPI_DATA,0x0568);//6
    2e4c:	0009883a 	mov	r4,zero
    2e50:	01415a04 	movi	r5,1384
    2e54:	00002c80 	call	2c8 <IO_write>

	//data phase IN-8
	IO_write(HPI_DATA,0x05b8); //8
    2e58:	0009883a 	mov	r4,zero
    2e5c:	01416e04 	movi	r5,1464
    2e60:	00002c80 	call	2c8 <IO_write>
	IO_write(HPI_DATA,0x0003);//a
    2e64:	0009883a 	mov	r4,zero
    2e68:	014000c4 	movi	r5,3
    2e6c:	00002c80 	call	2c8 <IO_write>
	IO_write(HPI_DATA,0x0290);//c
    2e70:	0009883a 	mov	r4,zero
    2e74:	0140a404 	movi	r5,656
    2e78:	00002c80 	call	2c8 <IO_write>
	IO_write(HPI_DATA,0x0001);//e //data0
    2e7c:	0009883a 	mov	r4,zero
    2e80:	01400044 	movi	r5,1
    2e84:	00002c80 	call	2c8 <IO_write>
	IO_write(HPI_DATA,0x0013);//570
    2e88:	0009883a 	mov	r4,zero
    2e8c:	014004c4 	movi	r5,19
    2e90:	00002c80 	call	2c8 <IO_write>
	IO_write(HPI_DATA,0x0574);//2
    2e94:	0009883a 	mov	r4,zero
    2e98:	01415d04 	movi	r5,1396
    2e9c:	00002c80 	call	2c8 <IO_write>

	//status phase
	IO_write(HPI_DATA,0x0000); //574
    2ea0:	0009883a 	mov	r4,zero
    2ea4:	000b883a 	mov	r5,zero
    2ea8:	00002c80 	call	2c8 <IO_write>
	IO_write(HPI_DATA,0x0000);//6
    2eac:	0009883a 	mov	r4,zero
    2eb0:	000b883a 	mov	r5,zero
    2eb4:	00002c80 	call	2c8 <IO_write>
	IO_write(HPI_DATA,0x0210);//8
    2eb8:	0009883a 	mov	r4,zero
    2ebc:	01408404 	movi	r5,528
    2ec0:	00002c80 	call	2c8 <IO_write>
	IO_write(HPI_DATA,0x0041);//a
    2ec4:	0009883a 	mov	r4,zero
    2ec8:	01401044 	movi	r5,65
    2ecc:	00002c80 	call	2c8 <IO_write>
	IO_write(HPI_DATA,0x0013);//c
    2ed0:	0009883a 	mov	r4,zero
    2ed4:	014004c4 	movi	r5,19
    2ed8:	00002c80 	call	2c8 <IO_write>
	IO_write(HPI_DATA,0x0000);//e
    2edc:	0009883a 	mov	r4,zero
    2ee0:	000b883a 	mov	r5,zero
    2ee4:	00002c80 	call	2c8 <IO_write>

	UsbWrite(HUSB_SIE1_pCurrentTDPtr,0x0500); //HUSB_SIE1_pCurrentTDPtr
    2ee8:	01006c04 	movi	r4,432
    2eec:	01414004 	movi	r5,1280
    2ef0:	0001f440 	call	1f44 <UsbWrite>

}
    2ef4:	e037883a 	mov	sp,fp
    2ef8:	dfc00117 	ldw	ra,4(sp)
    2efc:	df000017 	ldw	fp,0(sp)
    2f00:	dec00204 	addi	sp,sp,8
    2f04:	f800283a 	ret

00002f08 <UsbWaitTDListDone>:


alt_u16 UsbWaitTDListDone()
{
    2f08:	defffd04 	addi	sp,sp,-12
    2f0c:	dfc00215 	stw	ra,8(sp)
    2f10:	df000115 	stw	fp,4(sp)
    2f14:	df000104 	addi	fp,sp,4
	alt_u16 usb_ctl_val;

	usb_ctl_val = UsbRead(HPI_SIE1_MSG_ADR); // STEP 3 j
    2f18:	01005104 	movi	r4,324
    2f1c:	0001f980 	call	1f98 <UsbRead>
    2f20:	e0bfff0d 	sth	r2,-4(fp)
	UsbWrite(HPI_SIE1_MSG_ADR, 0);
    2f24:	01005104 	movi	r4,324
    2f28:	000b883a 	mov	r5,zero
    2f2c:	0001f440 	call	1f44 <UsbWrite>
	while (usb_ctl_val != HUSB_TDListDone)  // k, read sie1 msg register
    2f30:	00000d06 	br	2f68 <UsbWaitTDListDone+0x60>
	{
		if(usb_ctl_val == 0x0000)
    2f34:	e0bfff0b 	ldhu	r2,-4(fp)
    2f38:	10000526 	beq	r2,zero,2f50 <UsbWaitTDListDone+0x48>
		{
		}
		else
		{
			printf("[SIE1 MSG]:SIE1 msg reg is %x\n",usb_ctl_val);
    2f3c:	e0bfff0b 	ldhu	r2,-4(fp)
    2f40:	01000074 	movhi	r4,1
    2f44:	210ae304 	addi	r4,r4,11148
    2f48:	100b883a 	mov	r5,r2
    2f4c:	00039b00 	call	39b0 <printf>
		}
		usb_ctl_val = UsbRead(HPI_SIE1_MSG_ADR);
    2f50:	01005104 	movi	r4,324
    2f54:	0001f980 	call	1f98 <UsbRead>
    2f58:	e0bfff0d 	sth	r2,-4(fp)
		UsbWrite(HPI_SIE1_MSG_ADR, 0);
    2f5c:	01005104 	movi	r4,324
    2f60:	000b883a 	mov	r5,zero
    2f64:	0001f440 	call	1f44 <UsbWrite>
{
	alt_u16 usb_ctl_val;

	usb_ctl_val = UsbRead(HPI_SIE1_MSG_ADR); // STEP 3 j
	UsbWrite(HPI_SIE1_MSG_ADR, 0);
	while (usb_ctl_val != HUSB_TDListDone)  // k, read sie1 msg register
    2f68:	e0bfff0b 	ldhu	r2,-4(fp)
    2f6c:	10840018 	cmpnei	r2,r2,4096
    2f70:	103ff01e 	bne	r2,zero,2f34 <__alt_data_end+0xfffad804>
		}
		usb_ctl_val = UsbRead(HPI_SIE1_MSG_ADR);
		UsbWrite(HPI_SIE1_MSG_ADR, 0);
	}

	return usb_ctl_val;
    2f74:	e0bfff0b 	ldhu	r2,-4(fp)
}
    2f78:	e037883a 	mov	sp,fp
    2f7c:	dfc00117 	ldw	ra,4(sp)
    2f80:	df000017 	ldw	fp,0(sp)
    2f84:	dec00204 	addi	sp,sp,8
    2f88:	f800283a 	ret

00002f8c <UsbGetRetryCnt>:


alt_u16 UsbGetRetryCnt()
{
    2f8c:	defffd04 	addi	sp,sp,-12
    2f90:	dfc00215 	stw	ra,8(sp)
    2f94:	df000115 	stw	fp,4(sp)
    2f98:	df000104 	addi	fp,sp,4
	alt_u16 usb_ctl_val;

	IO_read(HPI_STATUS);
    2f9c:	010000c4 	movi	r4,3
    2fa0:	00003300 	call	330 <IO_read>
	if(UsbRead(HPI_SIE1_MSG_ADR) == HUSB_TDListDone)
    2fa4:	01005104 	movi	r4,324
    2fa8:	0001f980 	call	1f98 <UsbRead>
    2fac:	10bfffcc 	andi	r2,r2,65535
    2fb0:	10840018 	cmpnei	r2,r2,4096
    2fb4:	1000091e 	bne	r2,zero,2fdc <UsbGetRetryCnt+0x50>
	{
		UsbWrite(HPI_SIE1_MSG_ADR, 0);
    2fb8:	01005104 	movi	r4,324
    2fbc:	000b883a 	mov	r5,zero
    2fc0:	0001f440 	call	1f44 <UsbWrite>

		while (!(IO_read(HPI_STATUS) & HPI_STATUS_SIE1msg_FLAG) )  //read sie1 msg register
    2fc4:	0001883a 	nop
    2fc8:	010000c4 	movi	r4,3
    2fcc:	00003300 	call	330 <IO_read>
    2fd0:	10bfffcc 	andi	r2,r2,65535
    2fd4:	1080040c 	andi	r2,r2,16
    2fd8:	103ffb26 	beq	r2,zero,2fc8 <__alt_data_end+0xfffad898>
		{
		}
	}
	//usleep(1000);
	IO_write(HPI_ADDR,0x0508);
    2fdc:	01000084 	movi	r4,2
    2fe0:	01414204 	movi	r5,1288
    2fe4:	00002c80 	call	2c8 <IO_write>
	usb_ctl_val = IO_read(HPI_DATA);
    2fe8:	0009883a 	mov	r4,zero
    2fec:	00003300 	call	330 <IO_read>
    2ff0:	e0bfff0d 	sth	r2,-4(fp)

	return usb_ctl_val;
    2ff4:	e0bfff0b 	ldhu	r2,-4(fp)
}
    2ff8:	e037883a 	mov	sp,fp
    2ffc:	dfc00117 	ldw	ra,4(sp)
    3000:	df000017 	ldw	fp,0(sp)
    3004:	dec00204 	addi	sp,sp,8
    3008:	f800283a 	ret

0000300c <UsbPrintMem>:


void UsbPrintMem()
{
    300c:	defffc04 	addi	sp,sp,-16
    3010:	dfc00315 	stw	ra,12(sp)
    3014:	df000215 	stw	fp,8(sp)
    3018:	df000204 	addi	fp,sp,8
	int i, code;
	IO_write(HPI_ADDR,0x0500); //the start address
    301c:	01000084 	movi	r4,2
    3020:	01414004 	movi	r5,1280
    3024:	00002c80 	call	2c8 <IO_write>
	for (i = 0; i <= 200; i += 2)
    3028:	e03ffe15 	stw	zero,-8(fp)
    302c:	00000e06 	br	3068 <UsbPrintMem+0x5c>
	{
		code = IO_read(HPI_DATA);
    3030:	0009883a 	mov	r4,zero
    3034:	00003300 	call	330 <IO_read>
    3038:	10bfffcc 	andi	r2,r2,65535
    303c:	e0bfff15 	stw	r2,-4(fp)
		printf("\naddr %x = %04x\n", 0x0500+i, code);
    3040:	e0bffe17 	ldw	r2,-8(fp)
    3044:	10814004 	addi	r2,r2,1280
    3048:	01000074 	movhi	r4,1
    304c:	210aeb04 	addi	r4,r4,11180
    3050:	100b883a 	mov	r5,r2
    3054:	e1bfff17 	ldw	r6,-4(fp)
    3058:	00039b00 	call	39b0 <printf>

void UsbPrintMem()
{
	int i, code;
	IO_write(HPI_ADDR,0x0500); //the start address
	for (i = 0; i <= 200; i += 2)
    305c:	e0bffe17 	ldw	r2,-8(fp)
    3060:	10800084 	addi	r2,r2,2
    3064:	e0bffe15 	stw	r2,-8(fp)
    3068:	e0bffe17 	ldw	r2,-8(fp)
    306c:	10803250 	cmplti	r2,r2,201
    3070:	103fef1e 	bne	r2,zero,3030 <__alt_data_end+0xfffad900>
	{
		code = IO_read(HPI_DATA);
		printf("\naddr %x = %04x\n", 0x0500+i, code);
	}
}
    3074:	e037883a 	mov	sp,fp
    3078:	dfc00117 	ldw	ra,4(sp)
    307c:	df000017 	ldw	fp,0(sp)
    3080:	dec00204 	addi	sp,sp,8
    3084:	f800283a 	ret

00003088 <udivmodsi4>:
    3088:	2900182e 	bgeu	r5,r4,30ec <udivmodsi4+0x64>
    308c:	28001716 	blt	r5,zero,30ec <udivmodsi4+0x64>
    3090:	00800804 	movi	r2,32
    3094:	00c00044 	movi	r3,1
    3098:	00000206 	br	30a4 <udivmodsi4+0x1c>
    309c:	10001126 	beq	r2,zero,30e4 <udivmodsi4+0x5c>
    30a0:	28000516 	blt	r5,zero,30b8 <udivmodsi4+0x30>
    30a4:	294b883a 	add	r5,r5,r5
    30a8:	10bfffc4 	addi	r2,r2,-1
    30ac:	18c7883a 	add	r3,r3,r3
    30b0:	293ffa36 	bltu	r5,r4,309c <__alt_data_end+0xfffad96c>
    30b4:	18000b26 	beq	r3,zero,30e4 <udivmodsi4+0x5c>
    30b8:	0005883a 	mov	r2,zero
    30bc:	21400236 	bltu	r4,r5,30c8 <udivmodsi4+0x40>
    30c0:	2149c83a 	sub	r4,r4,r5
    30c4:	10c4b03a 	or	r2,r2,r3
    30c8:	1806d07a 	srli	r3,r3,1
    30cc:	280ad07a 	srli	r5,r5,1
    30d0:	183ffa1e 	bne	r3,zero,30bc <__alt_data_end+0xfffad98c>
    30d4:	3000011e 	bne	r6,zero,30dc <udivmodsi4+0x54>
    30d8:	f800283a 	ret
    30dc:	2005883a 	mov	r2,r4
    30e0:	f800283a 	ret
    30e4:	0005883a 	mov	r2,zero
    30e8:	003ffa06 	br	30d4 <__alt_data_end+0xfffad9a4>
    30ec:	00c00044 	movi	r3,1
    30f0:	003ff106 	br	30b8 <__alt_data_end+0xfffad988>

000030f4 <__divsi3>:
    30f4:	defffe04 	addi	sp,sp,-8
    30f8:	dfc00115 	stw	ra,4(sp)
    30fc:	dc000015 	stw	r16,0(sp)
    3100:	20000b16 	blt	r4,zero,3130 <__divsi3+0x3c>
    3104:	0021883a 	mov	r16,zero
    3108:	28000c16 	blt	r5,zero,313c <__divsi3+0x48>
    310c:	000d883a 	mov	r6,zero
    3110:	00030880 	call	3088 <udivmodsi4>
    3114:	0407c83a 	sub	r3,zero,r16
    3118:	1884f03a 	xor	r2,r3,r2
    311c:	1405883a 	add	r2,r2,r16
    3120:	dfc00117 	ldw	ra,4(sp)
    3124:	dc000017 	ldw	r16,0(sp)
    3128:	dec00204 	addi	sp,sp,8
    312c:	f800283a 	ret
    3130:	0109c83a 	sub	r4,zero,r4
    3134:	04000044 	movi	r16,1
    3138:	283ff40e 	bge	r5,zero,310c <__alt_data_end+0xfffad9dc>
    313c:	014bc83a 	sub	r5,zero,r5
    3140:	8400005c 	xori	r16,r16,1
    3144:	003ff106 	br	310c <__alt_data_end+0xfffad9dc>

00003148 <__modsi3>:
    3148:	defffd04 	addi	sp,sp,-12
    314c:	dfc00215 	stw	ra,8(sp)
    3150:	dc400115 	stw	r17,4(sp)
    3154:	dc000015 	stw	r16,0(sp)
    3158:	20000c16 	blt	r4,zero,318c <__modsi3+0x44>
    315c:	0023883a 	mov	r17,zero
    3160:	0021883a 	mov	r16,zero
    3164:	28000d16 	blt	r5,zero,319c <__modsi3+0x54>
    3168:	01800044 	movi	r6,1
    316c:	00030880 	call	3088 <udivmodsi4>
    3170:	1404f03a 	xor	r2,r2,r16
    3174:	8885883a 	add	r2,r17,r2
    3178:	dfc00217 	ldw	ra,8(sp)
    317c:	dc400117 	ldw	r17,4(sp)
    3180:	dc000017 	ldw	r16,0(sp)
    3184:	dec00304 	addi	sp,sp,12
    3188:	f800283a 	ret
    318c:	0109c83a 	sub	r4,zero,r4
    3190:	04400044 	movi	r17,1
    3194:	043fffc4 	movi	r16,-1
    3198:	283ff30e 	bge	r5,zero,3168 <__alt_data_end+0xfffada38>
    319c:	014bc83a 	sub	r5,zero,r5
    31a0:	003ff106 	br	3168 <__alt_data_end+0xfffada38>

000031a4 <__udivsi3>:
    31a4:	000d883a 	mov	r6,zero
    31a8:	00030881 	jmpi	3088 <udivmodsi4>

000031ac <__umodsi3>:
    31ac:	01800044 	movi	r6,1
    31b0:	00030881 	jmpi	3088 <udivmodsi4>

000031b4 <malloc>:
    31b4:	00800074 	movhi	r2,1
    31b8:	10927a04 	addi	r2,r2,18920
    31bc:	200b883a 	mov	r5,r4
    31c0:	11000017 	ldw	r4,0(r2)
    31c4:	00031dc1 	jmpi	31dc <_malloc_r>

000031c8 <free>:
    31c8:	00800074 	movhi	r2,1
    31cc:	10927a04 	addi	r2,r2,18920
    31d0:	200b883a 	mov	r5,r4
    31d4:	11000017 	ldw	r4,0(r2)
    31d8:	0007ef01 	jmpi	7ef0 <_free_r>

000031dc <_malloc_r>:
    31dc:	defff504 	addi	sp,sp,-44
    31e0:	dc800315 	stw	r18,12(sp)
    31e4:	dfc00a15 	stw	ra,40(sp)
    31e8:	df000915 	stw	fp,36(sp)
    31ec:	ddc00815 	stw	r23,32(sp)
    31f0:	dd800715 	stw	r22,28(sp)
    31f4:	dd400615 	stw	r21,24(sp)
    31f8:	dd000515 	stw	r20,20(sp)
    31fc:	dcc00415 	stw	r19,16(sp)
    3200:	dc400215 	stw	r17,8(sp)
    3204:	dc000115 	stw	r16,4(sp)
    3208:	288002c4 	addi	r2,r5,11
    320c:	00c00584 	movi	r3,22
    3210:	2025883a 	mov	r18,r4
    3214:	18802a2e 	bgeu	r3,r2,32c0 <_malloc_r+0xe4>
    3218:	047ffe04 	movi	r17,-8
    321c:	1462703a 	and	r17,r2,r17
    3220:	88009e16 	blt	r17,zero,349c <_malloc_r+0x2c0>
    3224:	89409d36 	bltu	r17,r5,349c <_malloc_r+0x2c0>
    3228:	001017c0 	call	1017c <__malloc_lock>
    322c:	00807dc4 	movi	r2,503
    3230:	14402736 	bltu	r2,r17,32d0 <_malloc_r+0xf4>
    3234:	8806d0fa 	srli	r3,r17,3
    3238:	04c00074 	movhi	r19,1
    323c:	9ccbcc04 	addi	r19,r19,12080
    3240:	18c5883a 	add	r2,r3,r3
    3244:	1085883a 	add	r2,r2,r2
    3248:	1085883a 	add	r2,r2,r2
    324c:	9885883a 	add	r2,r19,r2
    3250:	14000317 	ldw	r16,12(r2)
    3254:	80814a26 	beq	r16,r2,3780 <_malloc_r+0x5a4>
    3258:	80c00117 	ldw	r3,4(r16)
    325c:	81000317 	ldw	r4,12(r16)
    3260:	00bfff04 	movi	r2,-4
    3264:	1884703a 	and	r2,r3,r2
    3268:	81400217 	ldw	r5,8(r16)
    326c:	8085883a 	add	r2,r16,r2
    3270:	10c00117 	ldw	r3,4(r2)
    3274:	29000315 	stw	r4,12(r5)
    3278:	21400215 	stw	r5,8(r4)
    327c:	18c00054 	ori	r3,r3,1
    3280:	10c00115 	stw	r3,4(r2)
    3284:	9009883a 	mov	r4,r18
    3288:	001019c0 	call	1019c <__malloc_unlock>
    328c:	80800204 	addi	r2,r16,8
    3290:	dfc00a17 	ldw	ra,40(sp)
    3294:	df000917 	ldw	fp,36(sp)
    3298:	ddc00817 	ldw	r23,32(sp)
    329c:	dd800717 	ldw	r22,28(sp)
    32a0:	dd400617 	ldw	r21,24(sp)
    32a4:	dd000517 	ldw	r20,20(sp)
    32a8:	dcc00417 	ldw	r19,16(sp)
    32ac:	dc800317 	ldw	r18,12(sp)
    32b0:	dc400217 	ldw	r17,8(sp)
    32b4:	dc000117 	ldw	r16,4(sp)
    32b8:	dec00b04 	addi	sp,sp,44
    32bc:	f800283a 	ret
    32c0:	04400404 	movi	r17,16
    32c4:	89407536 	bltu	r17,r5,349c <_malloc_r+0x2c0>
    32c8:	001017c0 	call	1017c <__malloc_lock>
    32cc:	003fd906 	br	3234 <__alt_data_end+0xfffadb04>
    32d0:	8806d27a 	srli	r3,r17,9
    32d4:	18007526 	beq	r3,zero,34ac <_malloc_r+0x2d0>
    32d8:	00800104 	movi	r2,4
    32dc:	10c0ef36 	bltu	r2,r3,369c <_malloc_r+0x4c0>
    32e0:	8806d1ba 	srli	r3,r17,6
    32e4:	19c00e04 	addi	r7,r3,56
    32e8:	39cb883a 	add	r5,r7,r7
    32ec:	04c00074 	movhi	r19,1
    32f0:	294b883a 	add	r5,r5,r5
    32f4:	9ccbcc04 	addi	r19,r19,12080
    32f8:	294b883a 	add	r5,r5,r5
    32fc:	994b883a 	add	r5,r19,r5
    3300:	2c000317 	ldw	r16,12(r5)
    3304:	2c000e26 	beq	r5,r16,3340 <_malloc_r+0x164>
    3308:	80800117 	ldw	r2,4(r16)
    330c:	01bfff04 	movi	r6,-4
    3310:	010003c4 	movi	r4,15
    3314:	1184703a 	and	r2,r2,r6
    3318:	1447c83a 	sub	r3,r2,r17
    331c:	20c00716 	blt	r4,r3,333c <_malloc_r+0x160>
    3320:	1800650e 	bge	r3,zero,34b8 <_malloc_r+0x2dc>
    3324:	84000317 	ldw	r16,12(r16)
    3328:	2c000526 	beq	r5,r16,3340 <_malloc_r+0x164>
    332c:	80800117 	ldw	r2,4(r16)
    3330:	1184703a 	and	r2,r2,r6
    3334:	1447c83a 	sub	r3,r2,r17
    3338:	20fff90e 	bge	r4,r3,3320 <__alt_data_end+0xfffadbf0>
    333c:	39ffffc4 	addi	r7,r7,-1
    3340:	38c00044 	addi	r3,r7,1
    3344:	01800074 	movhi	r6,1
    3348:	9c000417 	ldw	r16,16(r19)
    334c:	318bcc04 	addi	r6,r6,12080
    3350:	32400204 	addi	r9,r6,8
    3354:	82410326 	beq	r16,r9,3764 <_malloc_r+0x588>
    3358:	81000117 	ldw	r4,4(r16)
    335c:	00bfff04 	movi	r2,-4
    3360:	208e703a 	and	r7,r4,r2
    3364:	3c45c83a 	sub	r2,r7,r17
    3368:	010003c4 	movi	r4,15
    336c:	2080ee16 	blt	r4,r2,3728 <_malloc_r+0x54c>
    3370:	32400515 	stw	r9,20(r6)
    3374:	32400415 	stw	r9,16(r6)
    3378:	1000510e 	bge	r2,zero,34c0 <_malloc_r+0x2e4>
    337c:	00807fc4 	movi	r2,511
    3380:	11c0ce36 	bltu	r2,r7,36bc <_malloc_r+0x4e0>
    3384:	3808d0fa 	srli	r4,r7,3
    3388:	01c00044 	movi	r7,1
    338c:	30800117 	ldw	r2,4(r6)
    3390:	210b883a 	add	r5,r4,r4
    3394:	294b883a 	add	r5,r5,r5
    3398:	2009d0ba 	srai	r4,r4,2
    339c:	294b883a 	add	r5,r5,r5
    33a0:	298b883a 	add	r5,r5,r6
    33a4:	2a000217 	ldw	r8,8(r5)
    33a8:	3908983a 	sll	r4,r7,r4
    33ac:	81400315 	stw	r5,12(r16)
    33b0:	82000215 	stw	r8,8(r16)
    33b4:	2088b03a 	or	r4,r4,r2
    33b8:	2c000215 	stw	r16,8(r5)
    33bc:	31000115 	stw	r4,4(r6)
    33c0:	44000315 	stw	r16,12(r8)
    33c4:	1805d0ba 	srai	r2,r3,2
    33c8:	01400044 	movi	r5,1
    33cc:	288a983a 	sll	r5,r5,r2
    33d0:	21404336 	bltu	r4,r5,34e0 <_malloc_r+0x304>
    33d4:	2144703a 	and	r2,r4,r5
    33d8:	10000a1e 	bne	r2,zero,3404 <_malloc_r+0x228>
    33dc:	00bfff04 	movi	r2,-4
    33e0:	294b883a 	add	r5,r5,r5
    33e4:	1886703a 	and	r3,r3,r2
    33e8:	2144703a 	and	r2,r4,r5
    33ec:	18c00104 	addi	r3,r3,4
    33f0:	1000041e 	bne	r2,zero,3404 <_malloc_r+0x228>
    33f4:	294b883a 	add	r5,r5,r5
    33f8:	2144703a 	and	r2,r4,r5
    33fc:	18c00104 	addi	r3,r3,4
    3400:	103ffc26 	beq	r2,zero,33f4 <__alt_data_end+0xfffadcc4>
    3404:	023fff04 	movi	r8,-4
    3408:	01c003c4 	movi	r7,15
    340c:	18c5883a 	add	r2,r3,r3
    3410:	1085883a 	add	r2,r2,r2
    3414:	1085883a 	add	r2,r2,r2
    3418:	9895883a 	add	r10,r19,r2
    341c:	52c00304 	addi	r11,r10,12
    3420:	1819883a 	mov	r12,r3
    3424:	5c000017 	ldw	r16,0(r11)
    3428:	59bffd04 	addi	r6,r11,-12
    342c:	8180041e 	bne	r16,r6,3440 <_malloc_r+0x264>
    3430:	0000ce06 	br	376c <_malloc_r+0x590>
    3434:	2000d70e 	bge	r4,zero,3794 <_malloc_r+0x5b8>
    3438:	84000317 	ldw	r16,12(r16)
    343c:	8180cb26 	beq	r16,r6,376c <_malloc_r+0x590>
    3440:	80800117 	ldw	r2,4(r16)
    3444:	1204703a 	and	r2,r2,r8
    3448:	1449c83a 	sub	r4,r2,r17
    344c:	393ff90e 	bge	r7,r4,3434 <__alt_data_end+0xfffadd04>
    3450:	80800317 	ldw	r2,12(r16)
    3454:	80c00217 	ldw	r3,8(r16)
    3458:	89400054 	ori	r5,r17,1
    345c:	81400115 	stw	r5,4(r16)
    3460:	18800315 	stw	r2,12(r3)
    3464:	10c00215 	stw	r3,8(r2)
    3468:	8463883a 	add	r17,r16,r17
    346c:	9c400515 	stw	r17,20(r19)
    3470:	9c400415 	stw	r17,16(r19)
    3474:	20800054 	ori	r2,r4,1
    3478:	88800115 	stw	r2,4(r17)
    347c:	8a400315 	stw	r9,12(r17)
    3480:	8a400215 	stw	r9,8(r17)
    3484:	8923883a 	add	r17,r17,r4
    3488:	89000015 	stw	r4,0(r17)
    348c:	9009883a 	mov	r4,r18
    3490:	001019c0 	call	1019c <__malloc_unlock>
    3494:	80800204 	addi	r2,r16,8
    3498:	003f7d06 	br	3290 <__alt_data_end+0xfffadb60>
    349c:	00800304 	movi	r2,12
    34a0:	90800015 	stw	r2,0(r18)
    34a4:	0005883a 	mov	r2,zero
    34a8:	003f7906 	br	3290 <__alt_data_end+0xfffadb60>
    34ac:	01401f84 	movi	r5,126
    34b0:	01c00fc4 	movi	r7,63
    34b4:	003f8d06 	br	32ec <__alt_data_end+0xfffadbbc>
    34b8:	81000317 	ldw	r4,12(r16)
    34bc:	003f6a06 	br	3268 <__alt_data_end+0xfffadb38>
    34c0:	81c5883a 	add	r2,r16,r7
    34c4:	10c00117 	ldw	r3,4(r2)
    34c8:	9009883a 	mov	r4,r18
    34cc:	18c00054 	ori	r3,r3,1
    34d0:	10c00115 	stw	r3,4(r2)
    34d4:	001019c0 	call	1019c <__malloc_unlock>
    34d8:	80800204 	addi	r2,r16,8
    34dc:	003f6c06 	br	3290 <__alt_data_end+0xfffadb60>
    34e0:	9c000217 	ldw	r16,8(r19)
    34e4:	00bfff04 	movi	r2,-4
    34e8:	85800117 	ldw	r22,4(r16)
    34ec:	b0ac703a 	and	r22,r22,r2
    34f0:	b4400336 	bltu	r22,r17,3500 <_malloc_r+0x324>
    34f4:	b445c83a 	sub	r2,r22,r17
    34f8:	00c003c4 	movi	r3,15
    34fc:	18805d16 	blt	r3,r2,3674 <_malloc_r+0x498>
    3500:	05c00074 	movhi	r23,1
    3504:	00800074 	movhi	r2,1
    3508:	bdd27704 	addi	r23,r23,18908
    350c:	10996704 	addi	r2,r2,26012
    3510:	15400017 	ldw	r21,0(r2)
    3514:	b9000017 	ldw	r4,0(r23)
    3518:	00ffffc4 	movi	r3,-1
    351c:	858d883a 	add	r6,r16,r22
    3520:	8d6b883a 	add	r21,r17,r21
    3524:	20c0e426 	beq	r4,r3,38b8 <_malloc_r+0x6dc>
    3528:	ad4403c4 	addi	r21,r21,4111
    352c:	00fc0004 	movi	r3,-4096
    3530:	a8ea703a 	and	r21,r21,r3
    3534:	9009883a 	mov	r4,r18
    3538:	a80b883a 	mov	r5,r21
    353c:	d9800015 	stw	r6,0(sp)
    3540:	0003b340 	call	3b34 <_sbrk_r>
    3544:	00ffffc4 	movi	r3,-1
    3548:	1029883a 	mov	r20,r2
    354c:	d9800017 	ldw	r6,0(sp)
    3550:	10c0a426 	beq	r2,r3,37e4 <_malloc_r+0x608>
    3554:	1180a236 	bltu	r2,r6,37e0 <_malloc_r+0x604>
    3558:	07000074 	movhi	fp,1
    355c:	e7197304 	addi	fp,fp,26060
    3560:	e0c00017 	ldw	r3,0(fp)
    3564:	a8c7883a 	add	r3,r21,r3
    3568:	e0c00015 	stw	r3,0(fp)
    356c:	3500da26 	beq	r6,r20,38d8 <_malloc_r+0x6fc>
    3570:	b9000017 	ldw	r4,0(r23)
    3574:	00bfffc4 	movi	r2,-1
    3578:	2080e426 	beq	r4,r2,390c <_malloc_r+0x730>
    357c:	a185c83a 	sub	r2,r20,r6
    3580:	1885883a 	add	r2,r3,r2
    3584:	e0800015 	stw	r2,0(fp)
    3588:	a0c001cc 	andi	r3,r20,7
    358c:	1800b526 	beq	r3,zero,3864 <_malloc_r+0x688>
    3590:	a0e9c83a 	sub	r20,r20,r3
    3594:	00840204 	movi	r2,4104
    3598:	a5000204 	addi	r20,r20,8
    359c:	10c7c83a 	sub	r3,r2,r3
    35a0:	a545883a 	add	r2,r20,r21
    35a4:	1083ffcc 	andi	r2,r2,4095
    35a8:	18abc83a 	sub	r21,r3,r2
    35ac:	9009883a 	mov	r4,r18
    35b0:	a80b883a 	mov	r5,r21
    35b4:	0003b340 	call	3b34 <_sbrk_r>
    35b8:	00ffffc4 	movi	r3,-1
    35bc:	10c0d026 	beq	r2,r3,3900 <_malloc_r+0x724>
    35c0:	1507c83a 	sub	r3,r2,r20
    35c4:	a8c7883a 	add	r3,r21,r3
    35c8:	18c00054 	ori	r3,r3,1
    35cc:	e0800017 	ldw	r2,0(fp)
    35d0:	9d000215 	stw	r20,8(r19)
    35d4:	a0c00115 	stw	r3,4(r20)
    35d8:	a887883a 	add	r3,r21,r2
    35dc:	e0c00015 	stw	r3,0(fp)
    35e0:	84c00e26 	beq	r16,r19,361c <_malloc_r+0x440>
    35e4:	018003c4 	movi	r6,15
    35e8:	3580a02e 	bgeu	r6,r22,386c <_malloc_r+0x690>
    35ec:	81400117 	ldw	r5,4(r16)
    35f0:	013ffe04 	movi	r4,-8
    35f4:	b0bffd04 	addi	r2,r22,-12
    35f8:	1104703a 	and	r2,r2,r4
    35fc:	2900004c 	andi	r4,r5,1
    3600:	1108b03a 	or	r4,r2,r4
    3604:	81000115 	stw	r4,4(r16)
    3608:	01400144 	movi	r5,5
    360c:	8089883a 	add	r4,r16,r2
    3610:	21400115 	stw	r5,4(r4)
    3614:	21400215 	stw	r5,8(r4)
    3618:	3080c036 	bltu	r6,r2,391c <_malloc_r+0x740>
    361c:	00800074 	movhi	r2,1
    3620:	10996604 	addi	r2,r2,26008
    3624:	11000017 	ldw	r4,0(r2)
    3628:	20c0012e 	bgeu	r4,r3,3630 <_malloc_r+0x454>
    362c:	10c00015 	stw	r3,0(r2)
    3630:	00800074 	movhi	r2,1
    3634:	10996504 	addi	r2,r2,26004
    3638:	11000017 	ldw	r4,0(r2)
    363c:	9c000217 	ldw	r16,8(r19)
    3640:	20c0012e 	bgeu	r4,r3,3648 <_malloc_r+0x46c>
    3644:	10c00015 	stw	r3,0(r2)
    3648:	80c00117 	ldw	r3,4(r16)
    364c:	00bfff04 	movi	r2,-4
    3650:	1886703a 	and	r3,r3,r2
    3654:	1c45c83a 	sub	r2,r3,r17
    3658:	1c400236 	bltu	r3,r17,3664 <_malloc_r+0x488>
    365c:	00c003c4 	movi	r3,15
    3660:	18800416 	blt	r3,r2,3674 <_malloc_r+0x498>
    3664:	9009883a 	mov	r4,r18
    3668:	001019c0 	call	1019c <__malloc_unlock>
    366c:	0005883a 	mov	r2,zero
    3670:	003f0706 	br	3290 <__alt_data_end+0xfffadb60>
    3674:	88c00054 	ori	r3,r17,1
    3678:	80c00115 	stw	r3,4(r16)
    367c:	8463883a 	add	r17,r16,r17
    3680:	10800054 	ori	r2,r2,1
    3684:	9c400215 	stw	r17,8(r19)
    3688:	88800115 	stw	r2,4(r17)
    368c:	9009883a 	mov	r4,r18
    3690:	001019c0 	call	1019c <__malloc_unlock>
    3694:	80800204 	addi	r2,r16,8
    3698:	003efd06 	br	3290 <__alt_data_end+0xfffadb60>
    369c:	00800504 	movi	r2,20
    36a0:	10c0482e 	bgeu	r2,r3,37c4 <_malloc_r+0x5e8>
    36a4:	00801504 	movi	r2,84
    36a8:	10c06836 	bltu	r2,r3,384c <_malloc_r+0x670>
    36ac:	8806d33a 	srli	r3,r17,12
    36b0:	19c01b84 	addi	r7,r3,110
    36b4:	39cb883a 	add	r5,r7,r7
    36b8:	003f0c06 	br	32ec <__alt_data_end+0xfffadbbc>
    36bc:	3804d27a 	srli	r2,r7,9
    36c0:	01000104 	movi	r4,4
    36c4:	2080422e 	bgeu	r4,r2,37d0 <_malloc_r+0x5f4>
    36c8:	01000504 	movi	r4,20
    36cc:	20807c36 	bltu	r4,r2,38c0 <_malloc_r+0x6e4>
    36d0:	110016c4 	addi	r4,r2,91
    36d4:	210b883a 	add	r5,r4,r4
    36d8:	294b883a 	add	r5,r5,r5
    36dc:	294b883a 	add	r5,r5,r5
    36e0:	994b883a 	add	r5,r19,r5
    36e4:	28800217 	ldw	r2,8(r5)
    36e8:	02000074 	movhi	r8,1
    36ec:	420bcc04 	addi	r8,r8,12080
    36f0:	11406326 	beq	r2,r5,3880 <_malloc_r+0x6a4>
    36f4:	01bfff04 	movi	r6,-4
    36f8:	11000117 	ldw	r4,4(r2)
    36fc:	2188703a 	and	r4,r4,r6
    3700:	3900022e 	bgeu	r7,r4,370c <_malloc_r+0x530>
    3704:	10800217 	ldw	r2,8(r2)
    3708:	28bffb1e 	bne	r5,r2,36f8 <__alt_data_end+0xfffadfc8>
    370c:	11800317 	ldw	r6,12(r2)
    3710:	99000117 	ldw	r4,4(r19)
    3714:	81800315 	stw	r6,12(r16)
    3718:	80800215 	stw	r2,8(r16)
    371c:	34000215 	stw	r16,8(r6)
    3720:	14000315 	stw	r16,12(r2)
    3724:	003f2706 	br	33c4 <__alt_data_end+0xfffadc94>
    3728:	88c00054 	ori	r3,r17,1
    372c:	80c00115 	stw	r3,4(r16)
    3730:	8463883a 	add	r17,r16,r17
    3734:	34400515 	stw	r17,20(r6)
    3738:	34400415 	stw	r17,16(r6)
    373c:	10c00054 	ori	r3,r2,1
    3740:	8a400315 	stw	r9,12(r17)
    3744:	8a400215 	stw	r9,8(r17)
    3748:	88c00115 	stw	r3,4(r17)
    374c:	88a3883a 	add	r17,r17,r2
    3750:	88800015 	stw	r2,0(r17)
    3754:	9009883a 	mov	r4,r18
    3758:	001019c0 	call	1019c <__malloc_unlock>
    375c:	80800204 	addi	r2,r16,8
    3760:	003ecb06 	br	3290 <__alt_data_end+0xfffadb60>
    3764:	31000117 	ldw	r4,4(r6)
    3768:	003f1606 	br	33c4 <__alt_data_end+0xfffadc94>
    376c:	63000044 	addi	r12,r12,1
    3770:	608000cc 	andi	r2,r12,3
    3774:	5ac00204 	addi	r11,r11,8
    3778:	103f2a1e 	bne	r2,zero,3424 <__alt_data_end+0xfffadcf4>
    377c:	00002106 	br	3804 <_malloc_r+0x628>
    3780:	80800204 	addi	r2,r16,8
    3784:	84000517 	ldw	r16,20(r16)
    3788:	143eb31e 	bne	r2,r16,3258 <__alt_data_end+0xfffadb28>
    378c:	18c00084 	addi	r3,r3,2
    3790:	003eec06 	br	3344 <__alt_data_end+0xfffadc14>
    3794:	8085883a 	add	r2,r16,r2
    3798:	10c00117 	ldw	r3,4(r2)
    379c:	81000317 	ldw	r4,12(r16)
    37a0:	81400217 	ldw	r5,8(r16)
    37a4:	18c00054 	ori	r3,r3,1
    37a8:	10c00115 	stw	r3,4(r2)
    37ac:	29000315 	stw	r4,12(r5)
    37b0:	21400215 	stw	r5,8(r4)
    37b4:	9009883a 	mov	r4,r18
    37b8:	001019c0 	call	1019c <__malloc_unlock>
    37bc:	80800204 	addi	r2,r16,8
    37c0:	003eb306 	br	3290 <__alt_data_end+0xfffadb60>
    37c4:	19c016c4 	addi	r7,r3,91
    37c8:	39cb883a 	add	r5,r7,r7
    37cc:	003ec706 	br	32ec <__alt_data_end+0xfffadbbc>
    37d0:	3804d1ba 	srli	r2,r7,6
    37d4:	11000e04 	addi	r4,r2,56
    37d8:	210b883a 	add	r5,r4,r4
    37dc:	003fbe06 	br	36d8 <__alt_data_end+0xfffadfa8>
    37e0:	84ff5d26 	beq	r16,r19,3558 <__alt_data_end+0xfffade28>
    37e4:	9c000217 	ldw	r16,8(r19)
    37e8:	00bfff04 	movi	r2,-4
    37ec:	80c00117 	ldw	r3,4(r16)
    37f0:	1886703a 	and	r3,r3,r2
    37f4:	003f9706 	br	3654 <__alt_data_end+0xfffadf24>
    37f8:	52800017 	ldw	r10,0(r10)
    37fc:	18ffffc4 	addi	r3,r3,-1
    3800:	50805c1e 	bne	r10,r2,3974 <_malloc_r+0x798>
    3804:	190000cc 	andi	r4,r3,3
    3808:	50bffe04 	addi	r2,r10,-8
    380c:	203ffa1e 	bne	r4,zero,37f8 <__alt_data_end+0xfffae0c8>
    3810:	98800117 	ldw	r2,4(r19)
    3814:	0146303a 	nor	r3,zero,r5
    3818:	1884703a 	and	r2,r3,r2
    381c:	98800115 	stw	r2,4(r19)
    3820:	294b883a 	add	r5,r5,r5
    3824:	117f2e36 	bltu	r2,r5,34e0 <__alt_data_end+0xfffaddb0>
    3828:	283f2d26 	beq	r5,zero,34e0 <__alt_data_end+0xfffaddb0>
    382c:	1146703a 	and	r3,r2,r5
    3830:	1800521e 	bne	r3,zero,397c <_malloc_r+0x7a0>
    3834:	6007883a 	mov	r3,r12
    3838:	294b883a 	add	r5,r5,r5
    383c:	1148703a 	and	r4,r2,r5
    3840:	18c00104 	addi	r3,r3,4
    3844:	203ffc26 	beq	r4,zero,3838 <__alt_data_end+0xfffae108>
    3848:	003ef006 	br	340c <__alt_data_end+0xfffadcdc>
    384c:	00805504 	movi	r2,340
    3850:	10c01336 	bltu	r2,r3,38a0 <_malloc_r+0x6c4>
    3854:	8806d3fa 	srli	r3,r17,15
    3858:	19c01dc4 	addi	r7,r3,119
    385c:	39cb883a 	add	r5,r7,r7
    3860:	003ea206 	br	32ec <__alt_data_end+0xfffadbbc>
    3864:	00c40004 	movi	r3,4096
    3868:	003f4d06 	br	35a0 <__alt_data_end+0xfffade70>
    386c:	00800044 	movi	r2,1
    3870:	a0800115 	stw	r2,4(r20)
    3874:	a021883a 	mov	r16,r20
    3878:	0007883a 	mov	r3,zero
    387c:	003f7506 	br	3654 <__alt_data_end+0xfffadf24>
    3880:	200bd0ba 	srai	r5,r4,2
    3884:	01800044 	movi	r6,1
    3888:	41000117 	ldw	r4,4(r8)
    388c:	314a983a 	sll	r5,r6,r5
    3890:	100d883a 	mov	r6,r2
    3894:	2908b03a 	or	r4,r5,r4
    3898:	41000115 	stw	r4,4(r8)
    389c:	003f9d06 	br	3714 <__alt_data_end+0xfffadfe4>
    38a0:	00815504 	movi	r2,1364
    38a4:	10c01336 	bltu	r2,r3,38f4 <_malloc_r+0x718>
    38a8:	8806d4ba 	srli	r3,r17,18
    38ac:	19c01f04 	addi	r7,r3,124
    38b0:	39cb883a 	add	r5,r7,r7
    38b4:	003e8d06 	br	32ec <__alt_data_end+0xfffadbbc>
    38b8:	ad400404 	addi	r21,r21,16
    38bc:	003f1d06 	br	3534 <__alt_data_end+0xfffade04>
    38c0:	01001504 	movi	r4,84
    38c4:	20801c36 	bltu	r4,r2,3938 <_malloc_r+0x75c>
    38c8:	3804d33a 	srli	r2,r7,12
    38cc:	11001b84 	addi	r4,r2,110
    38d0:	210b883a 	add	r5,r4,r4
    38d4:	003f8006 	br	36d8 <__alt_data_end+0xfffadfa8>
    38d8:	3083ffcc 	andi	r2,r6,4095
    38dc:	103f241e 	bne	r2,zero,3570 <__alt_data_end+0xfffade40>
    38e0:	99000217 	ldw	r4,8(r19)
    38e4:	ad85883a 	add	r2,r21,r22
    38e8:	10800054 	ori	r2,r2,1
    38ec:	20800115 	stw	r2,4(r4)
    38f0:	003f4a06 	br	361c <__alt_data_end+0xfffadeec>
    38f4:	01403f04 	movi	r5,252
    38f8:	01c01f84 	movi	r7,126
    38fc:	003e7b06 	br	32ec <__alt_data_end+0xfffadbbc>
    3900:	00c00044 	movi	r3,1
    3904:	002b883a 	mov	r21,zero
    3908:	003f3006 	br	35cc <__alt_data_end+0xfffade9c>
    390c:	00800074 	movhi	r2,1
    3910:	10927704 	addi	r2,r2,18908
    3914:	15000015 	stw	r20,0(r2)
    3918:	003f1b06 	br	3588 <__alt_data_end+0xfffade58>
    391c:	9009883a 	mov	r4,r18
    3920:	81400204 	addi	r5,r16,8
    3924:	0007ef00 	call	7ef0 <_free_r>
    3928:	00800074 	movhi	r2,1
    392c:	10997304 	addi	r2,r2,26060
    3930:	10c00017 	ldw	r3,0(r2)
    3934:	003f3906 	br	361c <__alt_data_end+0xfffadeec>
    3938:	01005504 	movi	r4,340
    393c:	20800436 	bltu	r4,r2,3950 <_malloc_r+0x774>
    3940:	3804d3fa 	srli	r2,r7,15
    3944:	11001dc4 	addi	r4,r2,119
    3948:	210b883a 	add	r5,r4,r4
    394c:	003f6206 	br	36d8 <__alt_data_end+0xfffadfa8>
    3950:	01015504 	movi	r4,1364
    3954:	20800436 	bltu	r4,r2,3968 <_malloc_r+0x78c>
    3958:	3804d4ba 	srli	r2,r7,18
    395c:	11001f04 	addi	r4,r2,124
    3960:	210b883a 	add	r5,r4,r4
    3964:	003f5c06 	br	36d8 <__alt_data_end+0xfffadfa8>
    3968:	01403f04 	movi	r5,252
    396c:	01001f84 	movi	r4,126
    3970:	003f5906 	br	36d8 <__alt_data_end+0xfffadfa8>
    3974:	98800117 	ldw	r2,4(r19)
    3978:	003fa906 	br	3820 <__alt_data_end+0xfffae0f0>
    397c:	6007883a 	mov	r3,r12
    3980:	003ea206 	br	340c <__alt_data_end+0xfffadcdc>

00003984 <_printf_r>:
    3984:	defffd04 	addi	sp,sp,-12
    3988:	dfc00015 	stw	ra,0(sp)
    398c:	d9800115 	stw	r6,4(sp)
    3990:	d9c00215 	stw	r7,8(sp)
    3994:	280d883a 	mov	r6,r5
    3998:	21400217 	ldw	r5,8(r4)
    399c:	d9c00104 	addi	r7,sp,4
    39a0:	0003c200 	call	3c20 <___vfprintf_internal_r>
    39a4:	dfc00017 	ldw	ra,0(sp)
    39a8:	dec00304 	addi	sp,sp,12
    39ac:	f800283a 	ret

000039b0 <printf>:
    39b0:	defffc04 	addi	sp,sp,-16
    39b4:	dfc00015 	stw	ra,0(sp)
    39b8:	d9400115 	stw	r5,4(sp)
    39bc:	d9800215 	stw	r6,8(sp)
    39c0:	d9c00315 	stw	r7,12(sp)
    39c4:	00800074 	movhi	r2,1
    39c8:	10927a04 	addi	r2,r2,18920
    39cc:	10800017 	ldw	r2,0(r2)
    39d0:	200b883a 	mov	r5,r4
    39d4:	d9800104 	addi	r6,sp,4
    39d8:	11000217 	ldw	r4,8(r2)
    39dc:	0005d1c0 	call	5d1c <__vfprintf_internal>
    39e0:	dfc00017 	ldw	ra,0(sp)
    39e4:	dec00404 	addi	sp,sp,16
    39e8:	f800283a 	ret

000039ec <_puts_r>:
    39ec:	defff604 	addi	sp,sp,-40
    39f0:	dc000715 	stw	r16,28(sp)
    39f4:	2021883a 	mov	r16,r4
    39f8:	2809883a 	mov	r4,r5
    39fc:	dc400815 	stw	r17,32(sp)
    3a00:	dfc00915 	stw	ra,36(sp)
    3a04:	2823883a 	mov	r17,r5
    3a08:	0003b880 	call	3b88 <strlen>
    3a0c:	00c00074 	movhi	r3,1
    3a10:	18d27a04 	addi	r3,r3,18920
    3a14:	18c00017 	ldw	r3,0(r3)
    3a18:	11000044 	addi	r4,r2,1
    3a1c:	d8800115 	stw	r2,4(sp)
    3a20:	18c00217 	ldw	r3,8(r3)
    3a24:	01400074 	movhi	r5,1
    3a28:	294af004 	addi	r5,r5,11200
    3a2c:	1880030b 	ldhu	r2,12(r3)
    3a30:	d9400215 	stw	r5,8(sp)
    3a34:	d9000615 	stw	r4,24(sp)
    3a38:	01400044 	movi	r5,1
    3a3c:	01000084 	movi	r4,2
    3a40:	d9000515 	stw	r4,20(sp)
    3a44:	dc400015 	stw	r17,0(sp)
    3a48:	d9400315 	stw	r5,12(sp)
    3a4c:	dec00415 	stw	sp,16(sp)
    3a50:	1108000c 	andi	r4,r2,8192
    3a54:	2000061e 	bne	r4,zero,3a70 <_puts_r+0x84>
    3a58:	19401917 	ldw	r5,100(r3)
    3a5c:	0137ffc4 	movi	r4,-8193
    3a60:	10880014 	ori	r2,r2,8192
    3a64:	2908703a 	and	r4,r5,r4
    3a68:	1880030d 	sth	r2,12(r3)
    3a6c:	19001915 	stw	r4,100(r3)
    3a70:	81400217 	ldw	r5,8(r16)
    3a74:	8009883a 	mov	r4,r16
    3a78:	d9800404 	addi	r6,sp,16
    3a7c:	00081e00 	call	81e0 <__sfvwrite_r>
    3a80:	1000061e 	bne	r2,zero,3a9c <_puts_r+0xb0>
    3a84:	00800284 	movi	r2,10
    3a88:	dfc00917 	ldw	ra,36(sp)
    3a8c:	dc400817 	ldw	r17,32(sp)
    3a90:	dc000717 	ldw	r16,28(sp)
    3a94:	dec00a04 	addi	sp,sp,40
    3a98:	f800283a 	ret
    3a9c:	00bfffc4 	movi	r2,-1
    3aa0:	003ff906 	br	3a88 <__alt_data_end+0xfffae358>

00003aa4 <puts>:
    3aa4:	00800074 	movhi	r2,1
    3aa8:	10927a04 	addi	r2,r2,18920
    3aac:	200b883a 	mov	r5,r4
    3ab0:	11000017 	ldw	r4,0(r2)
    3ab4:	00039ec1 	jmpi	39ec <_puts_r>

00003ab8 <srand>:
    3ab8:	00800074 	movhi	r2,1
    3abc:	10927a04 	addi	r2,r2,18920
    3ac0:	10800017 	ldw	r2,0(r2)
    3ac4:	11002915 	stw	r4,164(r2)
    3ac8:	10002a15 	stw	zero,168(r2)
    3acc:	f800283a 	ret

00003ad0 <rand>:
    3ad0:	00800074 	movhi	r2,1
    3ad4:	defffe04 	addi	sp,sp,-8
    3ad8:	10927a04 	addi	r2,r2,18920
    3adc:	dc000015 	stw	r16,0(sp)
    3ae0:	14000017 	ldw	r16,0(r2)
    3ae4:	dfc00115 	stw	ra,4(sp)
    3ae8:	01932574 	movhi	r6,19605
    3aec:	81002917 	ldw	r4,164(r16)
    3af0:	81402a17 	ldw	r5,168(r16)
    3af4:	01d614b4 	movhi	r7,22610
    3af8:	319fcb44 	addi	r6,r6,32557
    3afc:	39fd0b44 	addi	r7,r7,-3027
    3b00:	000c6100 	call	c610 <__muldi3>
    3b04:	11000044 	addi	r4,r2,1
    3b08:	2085803a 	cmpltu	r2,r4,r2
    3b0c:	10c7883a 	add	r3,r2,r3
    3b10:	00a00034 	movhi	r2,32768
    3b14:	10bfffc4 	addi	r2,r2,-1
    3b18:	1884703a 	and	r2,r3,r2
    3b1c:	81002915 	stw	r4,164(r16)
    3b20:	80c02a15 	stw	r3,168(r16)
    3b24:	dfc00117 	ldw	ra,4(sp)
    3b28:	dc000017 	ldw	r16,0(sp)
    3b2c:	dec00204 	addi	sp,sp,8
    3b30:	f800283a 	ret

00003b34 <_sbrk_r>:
    3b34:	defffd04 	addi	sp,sp,-12
    3b38:	dc000015 	stw	r16,0(sp)
    3b3c:	04000074 	movhi	r16,1
    3b40:	dc400115 	stw	r17,4(sp)
    3b44:	84196804 	addi	r16,r16,26016
    3b48:	2023883a 	mov	r17,r4
    3b4c:	2809883a 	mov	r4,r5
    3b50:	dfc00215 	stw	ra,8(sp)
    3b54:	80000015 	stw	zero,0(r16)
    3b58:	00103900 	call	10390 <sbrk>
    3b5c:	00ffffc4 	movi	r3,-1
    3b60:	10c00526 	beq	r2,r3,3b78 <_sbrk_r+0x44>
    3b64:	dfc00217 	ldw	ra,8(sp)
    3b68:	dc400117 	ldw	r17,4(sp)
    3b6c:	dc000017 	ldw	r16,0(sp)
    3b70:	dec00304 	addi	sp,sp,12
    3b74:	f800283a 	ret
    3b78:	80c00017 	ldw	r3,0(r16)
    3b7c:	183ff926 	beq	r3,zero,3b64 <__alt_data_end+0xfffae434>
    3b80:	88c00015 	stw	r3,0(r17)
    3b84:	003ff706 	br	3b64 <__alt_data_end+0xfffae434>

00003b88 <strlen>:
    3b88:	208000cc 	andi	r2,r4,3
    3b8c:	10002026 	beq	r2,zero,3c10 <strlen+0x88>
    3b90:	20800007 	ldb	r2,0(r4)
    3b94:	10002026 	beq	r2,zero,3c18 <strlen+0x90>
    3b98:	2005883a 	mov	r2,r4
    3b9c:	00000206 	br	3ba8 <strlen+0x20>
    3ba0:	10c00007 	ldb	r3,0(r2)
    3ba4:	18001826 	beq	r3,zero,3c08 <strlen+0x80>
    3ba8:	10800044 	addi	r2,r2,1
    3bac:	10c000cc 	andi	r3,r2,3
    3bb0:	183ffb1e 	bne	r3,zero,3ba0 <__alt_data_end+0xfffae470>
    3bb4:	10c00017 	ldw	r3,0(r2)
    3bb8:	01ffbff4 	movhi	r7,65279
    3bbc:	39ffbfc4 	addi	r7,r7,-257
    3bc0:	00ca303a 	nor	r5,zero,r3
    3bc4:	01a02074 	movhi	r6,32897
    3bc8:	19c7883a 	add	r3,r3,r7
    3bcc:	31a02004 	addi	r6,r6,-32640
    3bd0:	1946703a 	and	r3,r3,r5
    3bd4:	1986703a 	and	r3,r3,r6
    3bd8:	1800091e 	bne	r3,zero,3c00 <strlen+0x78>
    3bdc:	10800104 	addi	r2,r2,4
    3be0:	10c00017 	ldw	r3,0(r2)
    3be4:	19cb883a 	add	r5,r3,r7
    3be8:	00c6303a 	nor	r3,zero,r3
    3bec:	28c6703a 	and	r3,r5,r3
    3bf0:	1986703a 	and	r3,r3,r6
    3bf4:	183ff926 	beq	r3,zero,3bdc <__alt_data_end+0xfffae4ac>
    3bf8:	00000106 	br	3c00 <strlen+0x78>
    3bfc:	10800044 	addi	r2,r2,1
    3c00:	10c00007 	ldb	r3,0(r2)
    3c04:	183ffd1e 	bne	r3,zero,3bfc <__alt_data_end+0xfffae4cc>
    3c08:	1105c83a 	sub	r2,r2,r4
    3c0c:	f800283a 	ret
    3c10:	2005883a 	mov	r2,r4
    3c14:	003fe706 	br	3bb4 <__alt_data_end+0xfffae484>
    3c18:	0005883a 	mov	r2,zero
    3c1c:	f800283a 	ret

00003c20 <___vfprintf_internal_r>:
    3c20:	defeb604 	addi	sp,sp,-1320
    3c24:	dfc14915 	stw	ra,1316(sp)
    3c28:	ddc14715 	stw	r23,1308(sp)
    3c2c:	dd814615 	stw	r22,1304(sp)
    3c30:	202f883a 	mov	r23,r4
    3c34:	282d883a 	mov	r22,r5
    3c38:	d9812a15 	stw	r6,1192(sp)
    3c3c:	d9c12d15 	stw	r7,1204(sp)
    3c40:	df014815 	stw	fp,1312(sp)
    3c44:	dd414515 	stw	r21,1300(sp)
    3c48:	dd014415 	stw	r20,1296(sp)
    3c4c:	dcc14315 	stw	r19,1292(sp)
    3c50:	dc814215 	stw	r18,1288(sp)
    3c54:	dc414115 	stw	r17,1284(sp)
    3c58:	dc014015 	stw	r16,1280(sp)
    3c5c:	00088a00 	call	88a0 <_localeconv_r>
    3c60:	10800017 	ldw	r2,0(r2)
    3c64:	1009883a 	mov	r4,r2
    3c68:	d8813515 	stw	r2,1236(sp)
    3c6c:	0003b880 	call	3b88 <strlen>
    3c70:	d8813815 	stw	r2,1248(sp)
    3c74:	b8000226 	beq	r23,zero,3c80 <___vfprintf_internal_r+0x60>
    3c78:	b8800e17 	ldw	r2,56(r23)
    3c7c:	10010526 	beq	r2,zero,4094 <___vfprintf_internal_r+0x474>
    3c80:	b0c0030b 	ldhu	r3,12(r22)
    3c84:	1908000c 	andi	r4,r3,8192
    3c88:	1805883a 	mov	r2,r3
    3c8c:	2000071e 	bne	r4,zero,3cac <___vfprintf_internal_r+0x8c>
    3c90:	b1001917 	ldw	r4,100(r22)
    3c94:	18880014 	ori	r2,r3,8192
    3c98:	00f7ffc4 	movi	r3,-8193
    3c9c:	20c8703a 	and	r4,r4,r3
    3ca0:	b080030d 	sth	r2,12(r22)
    3ca4:	1007883a 	mov	r3,r2
    3ca8:	b1001915 	stw	r4,100(r22)
    3cac:	1100020c 	andi	r4,r2,8
    3cb0:	2000a826 	beq	r4,zero,3f54 <___vfprintf_internal_r+0x334>
    3cb4:	b1000417 	ldw	r4,16(r22)
    3cb8:	2000a626 	beq	r4,zero,3f54 <___vfprintf_internal_r+0x334>
    3cbc:	1080068c 	andi	r2,r2,26
    3cc0:	01000284 	movi	r4,10
    3cc4:	1100ac26 	beq	r2,r4,3f78 <___vfprintf_internal_r+0x358>
    3cc8:	d8c10e04 	addi	r3,sp,1080
    3ccc:	d9010dc4 	addi	r4,sp,1079
    3cd0:	d9400404 	addi	r5,sp,16
    3cd4:	05000074 	movhi	r20,1
    3cd8:	1905c83a 	sub	r2,r3,r4
    3cdc:	a50b0184 	addi	r20,r20,11270
    3ce0:	d8c12815 	stw	r3,1184(sp)
    3ce4:	d9012915 	stw	r4,1188(sp)
    3ce8:	d9411e15 	stw	r5,1144(sp)
    3cec:	d8012015 	stw	zero,1152(sp)
    3cf0:	d8011f15 	stw	zero,1148(sp)
    3cf4:	d8013315 	stw	zero,1228(sp)
    3cf8:	d8013715 	stw	zero,1244(sp)
    3cfc:	d8013915 	stw	zero,1252(sp)
    3d00:	d8013b15 	stw	zero,1260(sp)
    3d04:	d8013a15 	stw	zero,1256(sp)
    3d08:	d8012f15 	stw	zero,1212(sp)
    3d0c:	2811883a 	mov	r8,r5
    3d10:	d8813c15 	stw	r2,1264(sp)
    3d14:	d8c12a17 	ldw	r3,1192(sp)
    3d18:	18800007 	ldb	r2,0(r3)
    3d1c:	10021326 	beq	r2,zero,456c <___vfprintf_internal_r+0x94c>
    3d20:	00c00944 	movi	r3,37
    3d24:	dc012a17 	ldw	r16,1192(sp)
    3d28:	10c0021e 	bne	r2,r3,3d34 <___vfprintf_internal_r+0x114>
    3d2c:	00001606 	br	3d88 <___vfprintf_internal_r+0x168>
    3d30:	10c08526 	beq	r2,r3,3f48 <___vfprintf_internal_r+0x328>
    3d34:	84000044 	addi	r16,r16,1
    3d38:	80800007 	ldb	r2,0(r16)
    3d3c:	103ffc1e 	bne	r2,zero,3d30 <__alt_data_end+0xfffae600>
    3d40:	d9012a17 	ldw	r4,1192(sp)
    3d44:	8123c83a 	sub	r17,r16,r4
    3d48:	88000f26 	beq	r17,zero,3d88 <___vfprintf_internal_r+0x168>
    3d4c:	d8812a17 	ldw	r2,1192(sp)
    3d50:	d8c12017 	ldw	r3,1152(sp)
    3d54:	44400115 	stw	r17,4(r8)
    3d58:	40800015 	stw	r2,0(r8)
    3d5c:	d8811f17 	ldw	r2,1148(sp)
    3d60:	1c47883a 	add	r3,r3,r17
    3d64:	d8c12015 	stw	r3,1152(sp)
    3d68:	10800044 	addi	r2,r2,1
    3d6c:	d8811f15 	stw	r2,1148(sp)
    3d70:	00c001c4 	movi	r3,7
    3d74:	1880b516 	blt	r3,r2,404c <___vfprintf_internal_r+0x42c>
    3d78:	42000204 	addi	r8,r8,8
    3d7c:	d8c12f17 	ldw	r3,1212(sp)
    3d80:	1c47883a 	add	r3,r3,r17
    3d84:	d8c12f15 	stw	r3,1212(sp)
    3d88:	80800007 	ldb	r2,0(r16)
    3d8c:	1000b626 	beq	r2,zero,4068 <___vfprintf_internal_r+0x448>
    3d90:	80800044 	addi	r2,r16,1
    3d94:	84000047 	ldb	r16,1(r16)
    3d98:	0027883a 	mov	r19,zero
    3d9c:	0039883a 	mov	fp,zero
    3da0:	dcc12b05 	stb	r19,1196(sp)
    3da4:	d8012785 	stb	zero,1182(sp)
    3da8:	027fffc4 	movi	r9,-1
    3dac:	d8012e15 	stw	zero,1208(sp)
    3db0:	04401604 	movi	r17,88
    3db4:	04800244 	movi	r18,9
    3db8:	da012a15 	stw	r8,1192(sp)
    3dbc:	e027883a 	mov	r19,fp
    3dc0:	17000044 	addi	fp,r2,1
    3dc4:	80bff804 	addi	r2,r16,-32
    3dc8:	88831236 	bltu	r17,r2,4a14 <___vfprintf_internal_r+0xdf4>
    3dcc:	100490ba 	slli	r2,r2,2
    3dd0:	01000034 	movhi	r4,0
    3dd4:	210f7904 	addi	r4,r4,15844
    3dd8:	1105883a 	add	r2,r2,r4
    3ddc:	10800017 	ldw	r2,0(r2)
    3de0:	1000683a 	jmp	r2
    3de4:	00004930 	cmpltui	zero,zero,292
    3de8:	00004a14 	movui	zero,296
    3dec:	00004a14 	movui	zero,296
    3df0:	0000494c 	andi	zero,zero,293
    3df4:	00004a14 	movui	zero,296
    3df8:	00004a14 	movui	zero,296
    3dfc:	00004a14 	movui	zero,296
    3e00:	00004a14 	movui	zero,296
    3e04:	00004a14 	movui	zero,296
    3e08:	00004a14 	movui	zero,296
    3e0c:	0000495c 	xori	zero,zero,293
    3e10:	00004984 	movi	zero,294
    3e14:	00004a14 	movui	zero,296
    3e18:	000040a0 	cmpeqi	zero,zero,258
    3e1c:	000040b0 	cmpltui	zero,zero,258
    3e20:	00004a14 	movui	zero,296
    3e24:	00004100 	call	410 <get_keycode+0x7c>
    3e28:	00004110 	cmplti	zero,zero,260
    3e2c:	00004110 	cmplti	zero,zero,260
    3e30:	00004110 	cmplti	zero,zero,260
    3e34:	00004110 	cmplti	zero,zero,260
    3e38:	00004110 	cmplti	zero,zero,260
    3e3c:	00004110 	cmplti	zero,zero,260
    3e40:	00004110 	cmplti	zero,zero,260
    3e44:	00004110 	cmplti	zero,zero,260
    3e48:	00004110 	cmplti	zero,zero,260
    3e4c:	00004a14 	movui	zero,296
    3e50:	00004a14 	movui	zero,296
    3e54:	00004a14 	movui	zero,296
    3e58:	00004a14 	movui	zero,296
    3e5c:	00004a14 	movui	zero,296
    3e60:	00004a14 	movui	zero,296
    3e64:	00004a14 	movui	zero,296
    3e68:	00004a14 	movui	zero,296
    3e6c:	00004a14 	movui	zero,296
    3e70:	00004a14 	movui	zero,296
    3e74:	00004154 	movui	zero,261
    3e78:	00004574 	movhi	zero,277
    3e7c:	00004a14 	movui	zero,296
    3e80:	00004574 	movhi	zero,277
    3e84:	00004a14 	movui	zero,296
    3e88:	00004a14 	movui	zero,296
    3e8c:	00004a14 	movui	zero,296
    3e90:	00004a14 	movui	zero,296
    3e94:	0000461c 	xori	zero,zero,280
    3e98:	00004a14 	movui	zero,296
    3e9c:	00004a14 	movui	zero,296
    3ea0:	0000462c 	andhi	zero,zero,280
    3ea4:	00004a14 	movui	zero,296
    3ea8:	00004a14 	movui	zero,296
    3eac:	00004a14 	movui	zero,296
    3eb0:	00004a14 	movui	zero,296
    3eb4:	00004a14 	movui	zero,296
    3eb8:	00004670 	cmpltui	zero,zero,281
    3ebc:	00004a14 	movui	zero,296
    3ec0:	00004a14 	movui	zero,296
    3ec4:	000046a8 	cmpgeui	zero,zero,282
    3ec8:	00004a14 	movui	zero,296
    3ecc:	00004a14 	movui	zero,296
    3ed0:	00004a14 	movui	zero,296
    3ed4:	00004a14 	movui	zero,296
    3ed8:	00004a14 	movui	zero,296
    3edc:	00004a14 	movui	zero,296
    3ee0:	00004a14 	movui	zero,296
    3ee4:	00004a14 	movui	zero,296
    3ee8:	00004a14 	movui	zero,296
    3eec:	00004a14 	movui	zero,296
    3ef0:	000048e4 	muli	zero,zero,291
    3ef4:	00004890 	cmplti	zero,zero,290
    3ef8:	00004574 	movhi	zero,277
    3efc:	00004574 	movhi	zero,277
    3f00:	00004574 	movhi	zero,277
    3f04:	000048d4 	movui	zero,291
    3f08:	00004890 	cmplti	zero,zero,290
    3f0c:	00004a14 	movui	zero,296
    3f10:	00004a14 	movui	zero,296
    3f14:	000047ac 	andhi	zero,zero,286
    3f18:	00004a14 	movui	zero,296
    3f1c:	000047c4 	movi	zero,287
    3f20:	00004804 	movi	zero,288
    3f24:	00004844 	movi	zero,289
    3f28:	00004710 	cmplti	zero,zero,284
    3f2c:	00004a14 	movui	zero,296
    3f30:	00004998 	cmpnei	zero,zero,294
    3f34:	00004a14 	movui	zero,296
    3f38:	00004720 	cmpeqi	zero,zero,284
    3f3c:	00004a14 	movui	zero,296
    3f40:	00004a14 	movui	zero,296
    3f44:	00004760 	cmpeqi	zero,zero,285
    3f48:	d9412a17 	ldw	r5,1192(sp)
    3f4c:	8163c83a 	sub	r17,r16,r5
    3f50:	003f7d06 	br	3d48 <__alt_data_end+0xfffae618>
    3f54:	b809883a 	mov	r4,r23
    3f58:	b00b883a 	mov	r5,r22
    3f5c:	0005d400 	call	5d40 <__swsetup_r>
    3f60:	10002d1e 	bne	r2,zero,4018 <___vfprintf_internal_r+0x3f8>
    3f64:	b0c0030b 	ldhu	r3,12(r22)
    3f68:	01000284 	movi	r4,10
    3f6c:	1805883a 	mov	r2,r3
    3f70:	1080068c 	andi	r2,r2,26
    3f74:	113f541e 	bne	r2,r4,3cc8 <__alt_data_end+0xfffae598>
    3f78:	b080038b 	ldhu	r2,14(r22)
    3f7c:	113fffcc 	andi	r4,r2,65535
    3f80:	2120001c 	xori	r4,r4,32768
    3f84:	21200004 	addi	r4,r4,-32768
    3f88:	203f4f16 	blt	r4,zero,3cc8 <__alt_data_end+0xfffae598>
    3f8c:	b2c01917 	ldw	r11,100(r22)
    3f90:	b2800717 	ldw	r10,28(r22)
    3f94:	b2400917 	ldw	r9,36(r22)
    3f98:	d9812a17 	ldw	r6,1192(sp)
    3f9c:	d9c12d17 	ldw	r7,1204(sp)
    3fa0:	02010004 	movi	r8,1024
    3fa4:	18ffff4c 	andi	r3,r3,65533
    3fa8:	d881078d 	sth	r2,1054(sp)
    3fac:	b809883a 	mov	r4,r23
    3fb0:	d8800404 	addi	r2,sp,16
    3fb4:	d9410404 	addi	r5,sp,1040
    3fb8:	d8c1070d 	sth	r3,1052(sp)
    3fbc:	dac11d15 	stw	r11,1140(sp)
    3fc0:	da810b15 	stw	r10,1068(sp)
    3fc4:	da410d15 	stw	r9,1076(sp)
    3fc8:	d8810415 	stw	r2,1040(sp)
    3fcc:	d8810815 	stw	r2,1056(sp)
    3fd0:	da010615 	stw	r8,1048(sp)
    3fd4:	da010915 	stw	r8,1060(sp)
    3fd8:	d8010a15 	stw	zero,1064(sp)
    3fdc:	0003c200 	call	3c20 <___vfprintf_internal_r>
    3fe0:	1021883a 	mov	r16,r2
    3fe4:	10000416 	blt	r2,zero,3ff8 <___vfprintf_internal_r+0x3d8>
    3fe8:	b809883a 	mov	r4,r23
    3fec:	d9410404 	addi	r5,sp,1040
    3ff0:	00077c00 	call	77c0 <_fflush_r>
    3ff4:	1007301e 	bne	r2,zero,5cb8 <___vfprintf_internal_r+0x2098>
    3ff8:	d881070b 	ldhu	r2,1052(sp)
    3ffc:	1080100c 	andi	r2,r2,64
    4000:	10000326 	beq	r2,zero,4010 <___vfprintf_internal_r+0x3f0>
    4004:	b080030b 	ldhu	r2,12(r22)
    4008:	10801014 	ori	r2,r2,64
    400c:	b080030d 	sth	r2,12(r22)
    4010:	8005883a 	mov	r2,r16
    4014:	00000106 	br	401c <___vfprintf_internal_r+0x3fc>
    4018:	00bfffc4 	movi	r2,-1
    401c:	dfc14917 	ldw	ra,1316(sp)
    4020:	df014817 	ldw	fp,1312(sp)
    4024:	ddc14717 	ldw	r23,1308(sp)
    4028:	dd814617 	ldw	r22,1304(sp)
    402c:	dd414517 	ldw	r21,1300(sp)
    4030:	dd014417 	ldw	r20,1296(sp)
    4034:	dcc14317 	ldw	r19,1292(sp)
    4038:	dc814217 	ldw	r18,1288(sp)
    403c:	dc414117 	ldw	r17,1284(sp)
    4040:	dc014017 	ldw	r16,1280(sp)
    4044:	dec14a04 	addi	sp,sp,1320
    4048:	f800283a 	ret
    404c:	b809883a 	mov	r4,r23
    4050:	b00b883a 	mov	r5,r22
    4054:	d9811e04 	addi	r6,sp,1144
    4058:	000a8640 	call	a864 <__sprint_r>
    405c:	1000081e 	bne	r2,zero,4080 <___vfprintf_internal_r+0x460>
    4060:	da000404 	addi	r8,sp,16
    4064:	003f4506 	br	3d7c <__alt_data_end+0xfffae64c>
    4068:	d8812017 	ldw	r2,1152(sp)
    406c:	10000426 	beq	r2,zero,4080 <___vfprintf_internal_r+0x460>
    4070:	b809883a 	mov	r4,r23
    4074:	b00b883a 	mov	r5,r22
    4078:	d9811e04 	addi	r6,sp,1144
    407c:	000a8640 	call	a864 <__sprint_r>
    4080:	b080030b 	ldhu	r2,12(r22)
    4084:	1080100c 	andi	r2,r2,64
    4088:	103fe31e 	bne	r2,zero,4018 <__alt_data_end+0xfffae8e8>
    408c:	d8812f17 	ldw	r2,1212(sp)
    4090:	003fe206 	br	401c <__alt_data_end+0xfffae8ec>
    4094:	b809883a 	mov	r4,r23
    4098:	0007d7c0 	call	7d7c <__sinit>
    409c:	003ef806 	br	3c80 <__alt_data_end+0xfffae550>
    40a0:	e005883a 	mov	r2,fp
    40a4:	9cc00114 	ori	r19,r19,4
    40a8:	e4000007 	ldb	r16,0(fp)
    40ac:	003f4406 	br	3dc0 <__alt_data_end+0xfffae690>
    40b0:	e4000007 	ldb	r16,0(fp)
    40b4:	01000a84 	movi	r4,42
    40b8:	e0800044 	addi	r2,fp,1
    40bc:	8106f626 	beq	r16,r4,5c98 <___vfprintf_internal_r+0x2078>
    40c0:	857ff404 	addi	r21,r16,-48
    40c4:	1039883a 	mov	fp,r2
    40c8:	0013883a 	mov	r9,zero
    40cc:	957f3d36 	bltu	r18,r21,3dc4 <__alt_data_end+0xfffae694>
    40d0:	0009883a 	mov	r4,zero
    40d4:	01400284 	movi	r5,10
    40d8:	000d3780 	call	d378 <__mulsi3>
    40dc:	e4000007 	ldb	r16,0(fp)
    40e0:	a889883a 	add	r4,r21,r2
    40e4:	e7000044 	addi	fp,fp,1
    40e8:	857ff404 	addi	r21,r16,-48
    40ec:	957ff92e 	bgeu	r18,r21,40d4 <__alt_data_end+0xfffae9a4>
    40f0:	2013883a 	mov	r9,r4
    40f4:	203f330e 	bge	r4,zero,3dc4 <__alt_data_end+0xfffae694>
    40f8:	027fffc4 	movi	r9,-1
    40fc:	003f3106 	br	3dc4 <__alt_data_end+0xfffae694>
    4100:	9cc02014 	ori	r19,r19,128
    4104:	e005883a 	mov	r2,fp
    4108:	e4000007 	ldb	r16,0(fp)
    410c:	003f2c06 	br	3dc0 <__alt_data_end+0xfffae690>
    4110:	857ff404 	addi	r21,r16,-48
    4114:	d8012e15 	stw	zero,1208(sp)
    4118:	e021883a 	mov	r16,fp
    411c:	0009883a 	mov	r4,zero
    4120:	da412c15 	stw	r9,1200(sp)
    4124:	01400284 	movi	r5,10
    4128:	000d3780 	call	d378 <__mulsi3>
    412c:	81400007 	ldb	r5,0(r16)
    4130:	1549883a 	add	r4,r2,r21
    4134:	e7000044 	addi	fp,fp,1
    4138:	2d7ff404 	addi	r21,r5,-48
    413c:	e021883a 	mov	r16,fp
    4140:	957ff82e 	bgeu	r18,r21,4124 <__alt_data_end+0xfffae9f4>
    4144:	2821883a 	mov	r16,r5
    4148:	d9012e15 	stw	r4,1208(sp)
    414c:	da412c17 	ldw	r9,1200(sp)
    4150:	003f1c06 	br	3dc4 <__alt_data_end+0xfffae694>
    4154:	da012a17 	ldw	r8,1192(sp)
    4158:	df012a15 	stw	fp,1192(sp)
    415c:	9839883a 	mov	fp,r19
    4160:	dcc12b03 	ldbu	r19,1196(sp)
    4164:	e7000414 	ori	fp,fp,16
    4168:	e080080c 	andi	r2,fp,32
    416c:	dcc12785 	stb	r19,1182(sp)
    4170:	d8c12d17 	ldw	r3,1204(sp)
    4174:	1001ce26 	beq	r2,zero,48b0 <___vfprintf_internal_r+0xc90>
    4178:	d9012d17 	ldw	r4,1204(sp)
    417c:	18800117 	ldw	r2,4(r3)
    4180:	1c800017 	ldw	r18,0(r3)
    4184:	21000204 	addi	r4,r4,8
    4188:	d9012d15 	stw	r4,1204(sp)
    418c:	102b883a 	mov	r21,r2
    4190:	10044916 	blt	r2,zero,52b8 <___vfprintf_internal_r+0x1698>
    4194:	dcc12783 	ldbu	r19,1182(sp)
    4198:	da413215 	stw	r9,1224(sp)
    419c:	00800044 	movi	r2,1
    41a0:	9546b03a 	or	r3,r18,r21
    41a4:	48000216 	blt	r9,zero,41b0 <___vfprintf_internal_r+0x590>
    41a8:	013fdfc4 	movi	r4,-129
    41ac:	e138703a 	and	fp,fp,r4
    41b0:	1802251e 	bne	r3,zero,4a48 <___vfprintf_internal_r+0xe28>
    41b4:	48031726 	beq	r9,zero,4e14 <___vfprintf_internal_r+0x11f4>
    41b8:	10803fcc 	andi	r2,r2,255
    41bc:	00c00044 	movi	r3,1
    41c0:	10c24526 	beq	r2,r3,4ad8 <___vfprintf_internal_r+0xeb8>
    41c4:	00c00084 	movi	r3,2
    41c8:	10c33426 	beq	r2,r3,4e9c <___vfprintf_internal_r+0x127c>
    41cc:	d8c10e04 	addi	r3,sp,1080
    41d0:	9008d0fa 	srli	r4,r18,3
    41d4:	a80a977a 	slli	r5,r21,29
    41d8:	a82ad0fa 	srli	r21,r21,3
    41dc:	948001cc 	andi	r18,r18,7
    41e0:	90800c04 	addi	r2,r18,48
    41e4:	18ffffc4 	addi	r3,r3,-1
    41e8:	2924b03a 	or	r18,r5,r4
    41ec:	18800005 	stb	r2,0(r3)
    41f0:	9548b03a 	or	r4,r18,r21
    41f4:	203ff61e 	bne	r4,zero,41d0 <__alt_data_end+0xfffaeaa0>
    41f8:	e100004c 	andi	r4,fp,1
    41fc:	d8c13115 	stw	r3,1220(sp)
    4200:	20039a1e 	bne	r4,zero,506c <___vfprintf_internal_r+0x144c>
    4204:	d8812817 	ldw	r2,1184(sp)
    4208:	10e3c83a 	sub	r17,r2,r3
    420c:	8805883a 	mov	r2,r17
    4210:	8a40010e 	bge	r17,r9,4218 <___vfprintf_internal_r+0x5f8>
    4214:	4805883a 	mov	r2,r9
    4218:	d8812b15 	stw	r2,1196(sp)
    421c:	d8013415 	stw	zero,1232(sp)
    4220:	98803fcc 	andi	r2,r19,255
    4224:	1080201c 	xori	r2,r2,128
    4228:	10bfe004 	addi	r2,r2,-128
    422c:	10000326 	beq	r2,zero,423c <___vfprintf_internal_r+0x61c>
    4230:	d8c12b17 	ldw	r3,1196(sp)
    4234:	18c00044 	addi	r3,r3,1
    4238:	d8c12b15 	stw	r3,1196(sp)
    423c:	e0c0008c 	andi	r3,fp,2
    4240:	d8c12c15 	stw	r3,1200(sp)
    4244:	18000326 	beq	r3,zero,4254 <___vfprintf_internal_r+0x634>
    4248:	d8c12b17 	ldw	r3,1196(sp)
    424c:	18c00084 	addi	r3,r3,2
    4250:	d8c12b15 	stw	r3,1196(sp)
    4254:	e0c0210c 	andi	r3,fp,132
    4258:	d8c13015 	stw	r3,1216(sp)
    425c:	1801f81e 	bne	r3,zero,4a40 <___vfprintf_internal_r+0xe20>
    4260:	d9012e17 	ldw	r4,1208(sp)
    4264:	d8c12b17 	ldw	r3,1196(sp)
    4268:	20ebc83a 	sub	r21,r4,r3
    426c:	0541f40e 	bge	zero,r21,4a40 <___vfprintf_internal_r+0xe20>
    4270:	02400404 	movi	r9,16
    4274:	d8c12017 	ldw	r3,1152(sp)
    4278:	d8811f17 	ldw	r2,1148(sp)
    427c:	4d45750e 	bge	r9,r21,5854 <___vfprintf_internal_r+0x1c34>
    4280:	01400074 	movhi	r5,1
    4284:	294b0584 	addi	r5,r5,11286
    4288:	d9413615 	stw	r5,1240(sp)
    428c:	4827883a 	mov	r19,r9
    4290:	048001c4 	movi	r18,7
    4294:	00000306 	br	42a4 <___vfprintf_internal_r+0x684>
    4298:	ad7ffc04 	addi	r21,r21,-16
    429c:	42000204 	addi	r8,r8,8
    42a0:	9d40130e 	bge	r19,r21,42f0 <___vfprintf_internal_r+0x6d0>
    42a4:	01000074 	movhi	r4,1
    42a8:	18c00404 	addi	r3,r3,16
    42ac:	10800044 	addi	r2,r2,1
    42b0:	210b0584 	addi	r4,r4,11286
    42b4:	41000015 	stw	r4,0(r8)
    42b8:	44c00115 	stw	r19,4(r8)
    42bc:	d8c12015 	stw	r3,1152(sp)
    42c0:	d8811f15 	stw	r2,1148(sp)
    42c4:	90bff40e 	bge	r18,r2,4298 <__alt_data_end+0xfffaeb68>
    42c8:	b809883a 	mov	r4,r23
    42cc:	b00b883a 	mov	r5,r22
    42d0:	d9811e04 	addi	r6,sp,1144
    42d4:	000a8640 	call	a864 <__sprint_r>
    42d8:	103f691e 	bne	r2,zero,4080 <__alt_data_end+0xfffae950>
    42dc:	ad7ffc04 	addi	r21,r21,-16
    42e0:	d8c12017 	ldw	r3,1152(sp)
    42e4:	d8811f17 	ldw	r2,1148(sp)
    42e8:	da000404 	addi	r8,sp,16
    42ec:	9d7fed16 	blt	r19,r21,42a4 <__alt_data_end+0xfffaeb74>
    42f0:	d9413617 	ldw	r5,1240(sp)
    42f4:	a8c7883a 	add	r3,r21,r3
    42f8:	10800044 	addi	r2,r2,1
    42fc:	41400015 	stw	r5,0(r8)
    4300:	45400115 	stw	r21,4(r8)
    4304:	d8c12015 	stw	r3,1152(sp)
    4308:	d8811f15 	stw	r2,1148(sp)
    430c:	010001c4 	movi	r4,7
    4310:	20832b16 	blt	r4,r2,4fc0 <___vfprintf_internal_r+0x13a0>
    4314:	d8812787 	ldb	r2,1182(sp)
    4318:	42000204 	addi	r8,r8,8
    431c:	10000c26 	beq	r2,zero,4350 <___vfprintf_internal_r+0x730>
    4320:	d8811f17 	ldw	r2,1148(sp)
    4324:	d9012784 	addi	r4,sp,1182
    4328:	18c00044 	addi	r3,r3,1
    432c:	10800044 	addi	r2,r2,1
    4330:	41000015 	stw	r4,0(r8)
    4334:	01000044 	movi	r4,1
    4338:	41000115 	stw	r4,4(r8)
    433c:	d8c12015 	stw	r3,1152(sp)
    4340:	d8811f15 	stw	r2,1148(sp)
    4344:	010001c4 	movi	r4,7
    4348:	2082c416 	blt	r4,r2,4e5c <___vfprintf_internal_r+0x123c>
    434c:	42000204 	addi	r8,r8,8
    4350:	d8812c17 	ldw	r2,1200(sp)
    4354:	10000c26 	beq	r2,zero,4388 <___vfprintf_internal_r+0x768>
    4358:	d8811f17 	ldw	r2,1148(sp)
    435c:	d9012704 	addi	r4,sp,1180
    4360:	18c00084 	addi	r3,r3,2
    4364:	10800044 	addi	r2,r2,1
    4368:	41000015 	stw	r4,0(r8)
    436c:	01000084 	movi	r4,2
    4370:	41000115 	stw	r4,4(r8)
    4374:	d8c12015 	stw	r3,1152(sp)
    4378:	d8811f15 	stw	r2,1148(sp)
    437c:	010001c4 	movi	r4,7
    4380:	2082be16 	blt	r4,r2,4e7c <___vfprintf_internal_r+0x125c>
    4384:	42000204 	addi	r8,r8,8
    4388:	d9013017 	ldw	r4,1216(sp)
    438c:	00802004 	movi	r2,128
    4390:	20822026 	beq	r4,r2,4c14 <___vfprintf_internal_r+0xff4>
    4394:	d9413217 	ldw	r5,1224(sp)
    4398:	2c67c83a 	sub	r19,r5,r17
    439c:	04c0260e 	bge	zero,r19,4438 <___vfprintf_internal_r+0x818>
    43a0:	05400404 	movi	r21,16
    43a4:	d8811f17 	ldw	r2,1148(sp)
    43a8:	acc4720e 	bge	r21,r19,5574 <___vfprintf_internal_r+0x1954>
    43ac:	01400074 	movhi	r5,1
    43b0:	294b0184 	addi	r5,r5,11270
    43b4:	d9412c15 	stw	r5,1200(sp)
    43b8:	048001c4 	movi	r18,7
    43bc:	00000306 	br	43cc <___vfprintf_internal_r+0x7ac>
    43c0:	9cfffc04 	addi	r19,r19,-16
    43c4:	42000204 	addi	r8,r8,8
    43c8:	acc0110e 	bge	r21,r19,4410 <___vfprintf_internal_r+0x7f0>
    43cc:	18c00404 	addi	r3,r3,16
    43d0:	10800044 	addi	r2,r2,1
    43d4:	45000015 	stw	r20,0(r8)
    43d8:	45400115 	stw	r21,4(r8)
    43dc:	d8c12015 	stw	r3,1152(sp)
    43e0:	d8811f15 	stw	r2,1148(sp)
    43e4:	90bff60e 	bge	r18,r2,43c0 <__alt_data_end+0xfffaec90>
    43e8:	b809883a 	mov	r4,r23
    43ec:	b00b883a 	mov	r5,r22
    43f0:	d9811e04 	addi	r6,sp,1144
    43f4:	000a8640 	call	a864 <__sprint_r>
    43f8:	103f211e 	bne	r2,zero,4080 <__alt_data_end+0xfffae950>
    43fc:	9cfffc04 	addi	r19,r19,-16
    4400:	d8c12017 	ldw	r3,1152(sp)
    4404:	d8811f17 	ldw	r2,1148(sp)
    4408:	da000404 	addi	r8,sp,16
    440c:	acffef16 	blt	r21,r19,43cc <__alt_data_end+0xfffaec9c>
    4410:	d9012c17 	ldw	r4,1200(sp)
    4414:	1cc7883a 	add	r3,r3,r19
    4418:	10800044 	addi	r2,r2,1
    441c:	41000015 	stw	r4,0(r8)
    4420:	44c00115 	stw	r19,4(r8)
    4424:	d8c12015 	stw	r3,1152(sp)
    4428:	d8811f15 	stw	r2,1148(sp)
    442c:	010001c4 	movi	r4,7
    4430:	20828216 	blt	r4,r2,4e3c <___vfprintf_internal_r+0x121c>
    4434:	42000204 	addi	r8,r8,8
    4438:	e080400c 	andi	r2,fp,256
    443c:	1001ac1e 	bne	r2,zero,4af0 <___vfprintf_internal_r+0xed0>
    4440:	d8811f17 	ldw	r2,1148(sp)
    4444:	d9413117 	ldw	r5,1220(sp)
    4448:	1c47883a 	add	r3,r3,r17
    444c:	10800044 	addi	r2,r2,1
    4450:	41400015 	stw	r5,0(r8)
    4454:	44400115 	stw	r17,4(r8)
    4458:	d8c12015 	stw	r3,1152(sp)
    445c:	d8811f15 	stw	r2,1148(sp)
    4460:	010001c4 	movi	r4,7
    4464:	20825d16 	blt	r4,r2,4ddc <___vfprintf_internal_r+0x11bc>
    4468:	42000204 	addi	r8,r8,8
    446c:	e080010c 	andi	r2,fp,4
    4470:	10003126 	beq	r2,zero,4538 <___vfprintf_internal_r+0x918>
    4474:	d8812e17 	ldw	r2,1208(sp)
    4478:	d9012b17 	ldw	r4,1196(sp)
    447c:	1121c83a 	sub	r16,r2,r4
    4480:	04002d0e 	bge	zero,r16,4538 <___vfprintf_internal_r+0x918>
    4484:	04400404 	movi	r17,16
    4488:	d8811f17 	ldw	r2,1148(sp)
    448c:	8c05340e 	bge	r17,r16,5960 <___vfprintf_internal_r+0x1d40>
    4490:	01000074 	movhi	r4,1
    4494:	210b0584 	addi	r4,r4,11286
    4498:	d9013615 	stw	r4,1240(sp)
    449c:	048001c4 	movi	r18,7
    44a0:	00000306 	br	44b0 <___vfprintf_internal_r+0x890>
    44a4:	843ffc04 	addi	r16,r16,-16
    44a8:	42000204 	addi	r8,r8,8
    44ac:	8c00130e 	bge	r17,r16,44fc <___vfprintf_internal_r+0x8dc>
    44b0:	01400074 	movhi	r5,1
    44b4:	18c00404 	addi	r3,r3,16
    44b8:	10800044 	addi	r2,r2,1
    44bc:	294b0584 	addi	r5,r5,11286
    44c0:	41400015 	stw	r5,0(r8)
    44c4:	44400115 	stw	r17,4(r8)
    44c8:	d8c12015 	stw	r3,1152(sp)
    44cc:	d8811f15 	stw	r2,1148(sp)
    44d0:	90bff40e 	bge	r18,r2,44a4 <__alt_data_end+0xfffaed74>
    44d4:	b809883a 	mov	r4,r23
    44d8:	b00b883a 	mov	r5,r22
    44dc:	d9811e04 	addi	r6,sp,1144
    44e0:	000a8640 	call	a864 <__sprint_r>
    44e4:	103ee61e 	bne	r2,zero,4080 <__alt_data_end+0xfffae950>
    44e8:	843ffc04 	addi	r16,r16,-16
    44ec:	d8c12017 	ldw	r3,1152(sp)
    44f0:	d8811f17 	ldw	r2,1148(sp)
    44f4:	da000404 	addi	r8,sp,16
    44f8:	8c3fed16 	blt	r17,r16,44b0 <__alt_data_end+0xfffaed80>
    44fc:	d9013617 	ldw	r4,1240(sp)
    4500:	1c07883a 	add	r3,r3,r16
    4504:	10800044 	addi	r2,r2,1
    4508:	41000015 	stw	r4,0(r8)
    450c:	44000115 	stw	r16,4(r8)
    4510:	d8c12015 	stw	r3,1152(sp)
    4514:	d8811f15 	stw	r2,1148(sp)
    4518:	010001c4 	movi	r4,7
    451c:	2080060e 	bge	r4,r2,4538 <___vfprintf_internal_r+0x918>
    4520:	b809883a 	mov	r4,r23
    4524:	b00b883a 	mov	r5,r22
    4528:	d9811e04 	addi	r6,sp,1144
    452c:	000a8640 	call	a864 <__sprint_r>
    4530:	103ed31e 	bne	r2,zero,4080 <__alt_data_end+0xfffae950>
    4534:	d8c12017 	ldw	r3,1152(sp)
    4538:	df012b17 	ldw	fp,1196(sp)
    453c:	d9412e17 	ldw	r5,1208(sp)
    4540:	e140010e 	bge	fp,r5,4548 <___vfprintf_internal_r+0x928>
    4544:	2839883a 	mov	fp,r5
    4548:	d8812f17 	ldw	r2,1212(sp)
    454c:	1705883a 	add	r2,r2,fp
    4550:	d8812f15 	stw	r2,1212(sp)
    4554:	1802291e 	bne	r3,zero,4dfc <___vfprintf_internal_r+0x11dc>
    4558:	d8c12a17 	ldw	r3,1192(sp)
    455c:	d8011f15 	stw	zero,1148(sp)
    4560:	da000404 	addi	r8,sp,16
    4564:	18800007 	ldb	r2,0(r3)
    4568:	103ded1e 	bne	r2,zero,3d20 <__alt_data_end+0xfffae5f0>
    456c:	dc012a17 	ldw	r16,1192(sp)
    4570:	003e0506 	br	3d88 <__alt_data_end+0xfffae658>
    4574:	d9012d17 	ldw	r4,1204(sp)
    4578:	d9412d17 	ldw	r5,1204(sp)
    457c:	da012a17 	ldw	r8,1192(sp)
    4580:	21000017 	ldw	r4,0(r4)
    4584:	29400117 	ldw	r5,4(r5)
    4588:	df012a15 	stw	fp,1192(sp)
    458c:	9839883a 	mov	fp,r19
    4590:	dcc12b03 	ldbu	r19,1196(sp)
    4594:	d9013715 	stw	r4,1244(sp)
    4598:	d9413915 	stw	r5,1252(sp)
    459c:	da013f15 	stw	r8,1276(sp)
    45a0:	da413e15 	stw	r9,1272(sp)
    45a4:	dcc12785 	stb	r19,1182(sp)
    45a8:	000a5140 	call	a514 <__fpclassifyd>
    45ac:	d8c12d17 	ldw	r3,1204(sp)
    45b0:	04400044 	movi	r17,1
    45b4:	da013f17 	ldw	r8,1276(sp)
    45b8:	1c800204 	addi	r18,r3,8
    45bc:	da413e17 	ldw	r9,1272(sp)
    45c0:	d9013717 	ldw	r4,1244(sp)
    45c4:	d9413917 	ldw	r5,1252(sp)
    45c8:	1443451e 	bne	r2,r17,52e0 <___vfprintf_internal_r+0x16c0>
    45cc:	000d883a 	mov	r6,zero
    45d0:	000f883a 	mov	r7,zero
    45d4:	000e7200 	call	e720 <__ledf2>
    45d8:	da013f17 	ldw	r8,1276(sp)
    45dc:	1004fe16 	blt	r2,zero,59d8 <___vfprintf_internal_r+0x1db8>
    45e0:	dcc12783 	ldbu	r19,1182(sp)
    45e4:	008011c4 	movi	r2,71
    45e8:	14045d0e 	bge	r2,r16,5760 <___vfprintf_internal_r+0x1b40>
    45ec:	01400074 	movhi	r5,1
    45f0:	294af204 	addi	r5,r5,11208
    45f4:	d9413115 	stw	r5,1220(sp)
    45f8:	00c000c4 	movi	r3,3
    45fc:	00bfdfc4 	movi	r2,-129
    4600:	d8c12b15 	stw	r3,1196(sp)
    4604:	e0b8703a 	and	fp,fp,r2
    4608:	dc812d15 	stw	r18,1204(sp)
    460c:	1823883a 	mov	r17,r3
    4610:	d8013215 	stw	zero,1224(sp)
    4614:	d8013415 	stw	zero,1232(sp)
    4618:	003f0106 	br	4220 <__alt_data_end+0xfffaeaf0>
    461c:	9cc00214 	ori	r19,r19,8
    4620:	e005883a 	mov	r2,fp
    4624:	e4000007 	ldb	r16,0(fp)
    4628:	003de506 	br	3dc0 <__alt_data_end+0xfffae690>
    462c:	da012a17 	ldw	r8,1192(sp)
    4630:	df012a15 	stw	fp,1192(sp)
    4634:	9f000414 	ori	fp,r19,16
    4638:	e0c0080c 	andi	r3,fp,32
    463c:	d8812d17 	ldw	r2,1204(sp)
    4640:	18007626 	beq	r3,zero,481c <___vfprintf_internal_r+0xbfc>
    4644:	d9412d17 	ldw	r5,1204(sp)
    4648:	14800017 	ldw	r18,0(r2)
    464c:	15400117 	ldw	r21,4(r2)
    4650:	29400204 	addi	r5,r5,8
    4654:	d9412d15 	stw	r5,1204(sp)
    4658:	0005883a 	mov	r2,zero
    465c:	9546b03a 	or	r3,r18,r21
    4660:	d8012785 	stb	zero,1182(sp)
    4664:	da413215 	stw	r9,1224(sp)
    4668:	0027883a 	mov	r19,zero
    466c:	003ecd06 	br	41a4 <__alt_data_end+0xfffaea74>
    4670:	da012a17 	ldw	r8,1192(sp)
    4674:	df012a15 	stw	fp,1192(sp)
    4678:	9f000414 	ori	fp,r19,16
    467c:	e0c0080c 	andi	r3,fp,32
    4680:	d8812d17 	ldw	r2,1204(sp)
    4684:	18002c26 	beq	r3,zero,4738 <___vfprintf_internal_r+0xb18>
    4688:	d9012d17 	ldw	r4,1204(sp)
    468c:	14800017 	ldw	r18,0(r2)
    4690:	15400117 	ldw	r21,4(r2)
    4694:	21000204 	addi	r4,r4,8
    4698:	d9012d15 	stw	r4,1204(sp)
    469c:	00800044 	movi	r2,1
    46a0:	9546b03a 	or	r3,r18,r21
    46a4:	003fee06 	br	4660 <__alt_data_end+0xfffaef30>
    46a8:	da012a17 	ldw	r8,1192(sp)
    46ac:	df012a15 	stw	fp,1192(sp)
    46b0:	9839883a 	mov	fp,r19
    46b4:	dcc12b03 	ldbu	r19,1196(sp)
    46b8:	01400074 	movhi	r5,1
    46bc:	294af504 	addi	r5,r5,11220
    46c0:	dcc12785 	stb	r19,1182(sp)
    46c4:	d9413b15 	stw	r5,1260(sp)
    46c8:	e0c0080c 	andi	r3,fp,32
    46cc:	d8812d17 	ldw	r2,1204(sp)
    46d0:	18002e26 	beq	r3,zero,478c <___vfprintf_internal_r+0xb6c>
    46d4:	d9412d17 	ldw	r5,1204(sp)
    46d8:	14800017 	ldw	r18,0(r2)
    46dc:	15400117 	ldw	r21,4(r2)
    46e0:	29400204 	addi	r5,r5,8
    46e4:	d9412d15 	stw	r5,1204(sp)
    46e8:	e080004c 	andi	r2,fp,1
    46ec:	10025c26 	beq	r2,zero,5060 <___vfprintf_internal_r+0x1440>
    46f0:	9546b03a 	or	r3,r18,r21
    46f4:	18038f26 	beq	r3,zero,5534 <___vfprintf_internal_r+0x1914>
    46f8:	00800c04 	movi	r2,48
    46fc:	d8812705 	stb	r2,1180(sp)
    4700:	dc012745 	stb	r16,1181(sp)
    4704:	e7000094 	ori	fp,fp,2
    4708:	00800084 	movi	r2,2
    470c:	003fd406 	br	4660 <__alt_data_end+0xfffaef30>
    4710:	9cc00814 	ori	r19,r19,32
    4714:	e005883a 	mov	r2,fp
    4718:	e4000007 	ldb	r16,0(fp)
    471c:	003da806 	br	3dc0 <__alt_data_end+0xfffae690>
    4720:	da012a17 	ldw	r8,1192(sp)
    4724:	df012a15 	stw	fp,1192(sp)
    4728:	9839883a 	mov	fp,r19
    472c:	e0c0080c 	andi	r3,fp,32
    4730:	d8812d17 	ldw	r2,1204(sp)
    4734:	183fd41e 	bne	r3,zero,4688 <__alt_data_end+0xfffaef58>
    4738:	e0c0040c 	andi	r3,fp,16
    473c:	18035f26 	beq	r3,zero,54bc <___vfprintf_internal_r+0x189c>
    4740:	d9412d17 	ldw	r5,1204(sp)
    4744:	14800017 	ldw	r18,0(r2)
    4748:	002b883a 	mov	r21,zero
    474c:	29400104 	addi	r5,r5,4
    4750:	d9412d15 	stw	r5,1204(sp)
    4754:	00800044 	movi	r2,1
    4758:	9007883a 	mov	r3,r18
    475c:	003fc006 	br	4660 <__alt_data_end+0xfffaef30>
    4760:	da012a17 	ldw	r8,1192(sp)
    4764:	df012a15 	stw	fp,1192(sp)
    4768:	9839883a 	mov	fp,r19
    476c:	dcc12b03 	ldbu	r19,1196(sp)
    4770:	01000074 	movhi	r4,1
    4774:	210afa04 	addi	r4,r4,11240
    4778:	d9013b15 	stw	r4,1260(sp)
    477c:	dcc12785 	stb	r19,1182(sp)
    4780:	e0c0080c 	andi	r3,fp,32
    4784:	d8812d17 	ldw	r2,1204(sp)
    4788:	183fd21e 	bne	r3,zero,46d4 <__alt_data_end+0xfffaefa4>
    478c:	e0c0040c 	andi	r3,fp,16
    4790:	18035426 	beq	r3,zero,54e4 <___vfprintf_internal_r+0x18c4>
    4794:	d8c12d17 	ldw	r3,1204(sp)
    4798:	14800017 	ldw	r18,0(r2)
    479c:	002b883a 	mov	r21,zero
    47a0:	18c00104 	addi	r3,r3,4
    47a4:	d8c12d15 	stw	r3,1204(sp)
    47a8:	003fcf06 	br	46e8 <__alt_data_end+0xfffaefb8>
    47ac:	e4000007 	ldb	r16,0(fp)
    47b0:	00801b04 	movi	r2,108
    47b4:	8083f726 	beq	r16,r2,5794 <___vfprintf_internal_r+0x1b74>
    47b8:	9cc00414 	ori	r19,r19,16
    47bc:	e005883a 	mov	r2,fp
    47c0:	003d7f06 	br	3dc0 <__alt_data_end+0xfffae690>
    47c4:	da012a17 	ldw	r8,1192(sp)
    47c8:	df012a15 	stw	fp,1192(sp)
    47cc:	9839883a 	mov	fp,r19
    47d0:	dcc12b03 	ldbu	r19,1196(sp)
    47d4:	e080080c 	andi	r2,fp,32
    47d8:	dcc12785 	stb	r19,1182(sp)
    47dc:	10032226 	beq	r2,zero,5468 <___vfprintf_internal_r+0x1848>
    47e0:	d9412d17 	ldw	r5,1204(sp)
    47e4:	d9012f17 	ldw	r4,1212(sp)
    47e8:	28800017 	ldw	r2,0(r5)
    47ec:	2007d7fa 	srai	r3,r4,31
    47f0:	29400104 	addi	r5,r5,4
    47f4:	d9412d15 	stw	r5,1204(sp)
    47f8:	11000015 	stw	r4,0(r2)
    47fc:	10c00115 	stw	r3,4(r2)
    4800:	003d4406 	br	3d14 <__alt_data_end+0xfffae5e4>
    4804:	da012a17 	ldw	r8,1192(sp)
    4808:	df012a15 	stw	fp,1192(sp)
    480c:	9839883a 	mov	fp,r19
    4810:	e0c0080c 	andi	r3,fp,32
    4814:	d8812d17 	ldw	r2,1204(sp)
    4818:	183f8a1e 	bne	r3,zero,4644 <__alt_data_end+0xfffaef14>
    481c:	e0c0040c 	andi	r3,fp,16
    4820:	18031c26 	beq	r3,zero,5494 <___vfprintf_internal_r+0x1874>
    4824:	14800017 	ldw	r18,0(r2)
    4828:	d8812d17 	ldw	r2,1204(sp)
    482c:	002b883a 	mov	r21,zero
    4830:	9007883a 	mov	r3,r18
    4834:	10800104 	addi	r2,r2,4
    4838:	d8812d15 	stw	r2,1204(sp)
    483c:	0005883a 	mov	r2,zero
    4840:	003f8706 	br	4660 <__alt_data_end+0xfffaef30>
    4844:	d9412d17 	ldw	r5,1204(sp)
    4848:	00800c04 	movi	r2,48
    484c:	d8812705 	stb	r2,1180(sp)
    4850:	2c800017 	ldw	r18,0(r5)
    4854:	00801e04 	movi	r2,120
    4858:	d8812745 	stb	r2,1181(sp)
    485c:	00800074 	movhi	r2,1
    4860:	108afa04 	addi	r2,r2,11240
    4864:	29400104 	addi	r5,r5,4
    4868:	da012a17 	ldw	r8,1192(sp)
    486c:	d8813b15 	stw	r2,1260(sp)
    4870:	df012a15 	stw	fp,1192(sp)
    4874:	002b883a 	mov	r21,zero
    4878:	9f000094 	ori	fp,r19,2
    487c:	d9412d15 	stw	r5,1204(sp)
    4880:	00800084 	movi	r2,2
    4884:	04001e04 	movi	r16,120
    4888:	9007883a 	mov	r3,r18
    488c:	003f7406 	br	4660 <__alt_data_end+0xfffaef30>
    4890:	da012a17 	ldw	r8,1192(sp)
    4894:	df012a15 	stw	fp,1192(sp)
    4898:	9839883a 	mov	fp,r19
    489c:	dcc12b03 	ldbu	r19,1196(sp)
    48a0:	e080080c 	andi	r2,fp,32
    48a4:	d8c12d17 	ldw	r3,1204(sp)
    48a8:	dcc12785 	stb	r19,1182(sp)
    48ac:	103e321e 	bne	r2,zero,4178 <__alt_data_end+0xfffaea48>
    48b0:	e080040c 	andi	r2,fp,16
    48b4:	10031326 	beq	r2,zero,5504 <___vfprintf_internal_r+0x18e4>
    48b8:	1c800017 	ldw	r18,0(r3)
    48bc:	d9412d17 	ldw	r5,1204(sp)
    48c0:	902bd7fa 	srai	r21,r18,31
    48c4:	29400104 	addi	r5,r5,4
    48c8:	d9412d15 	stw	r5,1204(sp)
    48cc:	a805883a 	mov	r2,r21
    48d0:	003e2f06 	br	4190 <__alt_data_end+0xfffaea60>
    48d4:	9cc01014 	ori	r19,r19,64
    48d8:	e005883a 	mov	r2,fp
    48dc:	e4000007 	ldb	r16,0(fp)
    48e0:	003d3706 	br	3dc0 <__alt_data_end+0xfffae690>
    48e4:	d8c12d17 	ldw	r3,1204(sp)
    48e8:	d9012d17 	ldw	r4,1204(sp)
    48ec:	da012a17 	ldw	r8,1192(sp)
    48f0:	18800017 	ldw	r2,0(r3)
    48f4:	21000104 	addi	r4,r4,4
    48f8:	00c00044 	movi	r3,1
    48fc:	df012a15 	stw	fp,1192(sp)
    4900:	d8c12b15 	stw	r3,1196(sp)
    4904:	9839883a 	mov	fp,r19
    4908:	d8012785 	stb	zero,1182(sp)
    490c:	d8810405 	stb	r2,1040(sp)
    4910:	d9012d15 	stw	r4,1204(sp)
    4914:	1823883a 	mov	r17,r3
    4918:	d8c10404 	addi	r3,sp,1040
    491c:	d8013215 	stw	zero,1224(sp)
    4920:	d8013415 	stw	zero,1232(sp)
    4924:	d8c13115 	stw	r3,1220(sp)
    4928:	0005883a 	mov	r2,zero
    492c:	003e4306 	br	423c <__alt_data_end+0xfffaeb0c>
    4930:	d8812b07 	ldb	r2,1196(sp)
    4934:	1002fc1e 	bne	r2,zero,5528 <___vfprintf_internal_r+0x1908>
    4938:	00c00804 	movi	r3,32
    493c:	d8c12b05 	stb	r3,1196(sp)
    4940:	e005883a 	mov	r2,fp
    4944:	e4000007 	ldb	r16,0(fp)
    4948:	003d1d06 	br	3dc0 <__alt_data_end+0xfffae690>
    494c:	9cc00054 	ori	r19,r19,1
    4950:	e005883a 	mov	r2,fp
    4954:	e4000007 	ldb	r16,0(fp)
    4958:	003d1906 	br	3dc0 <__alt_data_end+0xfffae690>
    495c:	d9012d17 	ldw	r4,1204(sp)
    4960:	d9412d17 	ldw	r5,1204(sp)
    4964:	21000017 	ldw	r4,0(r4)
    4968:	28c00104 	addi	r3,r5,4
    496c:	d9012e15 	stw	r4,1208(sp)
    4970:	20038c16 	blt	r4,zero,57a4 <___vfprintf_internal_r+0x1b84>
    4974:	d8c12d15 	stw	r3,1204(sp)
    4978:	e005883a 	mov	r2,fp
    497c:	e4000007 	ldb	r16,0(fp)
    4980:	003d0f06 	br	3dc0 <__alt_data_end+0xfffae690>
    4984:	00c00ac4 	movi	r3,43
    4988:	d8c12b05 	stb	r3,1196(sp)
    498c:	e005883a 	mov	r2,fp
    4990:	e4000007 	ldb	r16,0(fp)
    4994:	003d0a06 	br	3dc0 <__alt_data_end+0xfffae690>
    4998:	d8c12d17 	ldw	r3,1204(sp)
    499c:	d9012d17 	ldw	r4,1204(sp)
    49a0:	da012a17 	ldw	r8,1192(sp)
    49a4:	18c00017 	ldw	r3,0(r3)
    49a8:	df012a15 	stw	fp,1192(sp)
    49ac:	d8012785 	stb	zero,1182(sp)
    49b0:	d8c13115 	stw	r3,1220(sp)
    49b4:	9839883a 	mov	fp,r19
    49b8:	24800104 	addi	r18,r4,4
    49bc:	1803f726 	beq	r3,zero,599c <___vfprintf_internal_r+0x1d7c>
    49c0:	d9013117 	ldw	r4,1220(sp)
    49c4:	48038916 	blt	r9,zero,57ec <___vfprintf_internal_r+0x1bcc>
    49c8:	480d883a 	mov	r6,r9
    49cc:	000b883a 	mov	r5,zero
    49d0:	da013f15 	stw	r8,1276(sp)
    49d4:	da413e15 	stw	r9,1272(sp)
    49d8:	0008a8c0 	call	8a8c <memchr>
    49dc:	da013f17 	ldw	r8,1276(sp)
    49e0:	da413e17 	ldw	r9,1272(sp)
    49e4:	10045926 	beq	r2,zero,5b4c <___vfprintf_internal_r+0x1f2c>
    49e8:	d8c13117 	ldw	r3,1220(sp)
    49ec:	10e3c83a 	sub	r17,r2,r3
    49f0:	4c433516 	blt	r9,r17,56c8 <___vfprintf_internal_r+0x1aa8>
    49f4:	8805883a 	mov	r2,r17
    49f8:	88038116 	blt	r17,zero,5800 <___vfprintf_internal_r+0x1be0>
    49fc:	dcc12783 	ldbu	r19,1182(sp)
    4a00:	d8812b15 	stw	r2,1196(sp)
    4a04:	dc812d15 	stw	r18,1204(sp)
    4a08:	d8013215 	stw	zero,1224(sp)
    4a0c:	d8013415 	stw	zero,1232(sp)
    4a10:	003e0306 	br	4220 <__alt_data_end+0xfffaeaf0>
    4a14:	da012a17 	ldw	r8,1192(sp)
    4a18:	df012a15 	stw	fp,1192(sp)
    4a1c:	9839883a 	mov	fp,r19
    4a20:	dcc12b03 	ldbu	r19,1196(sp)
    4a24:	dcc12785 	stb	r19,1182(sp)
    4a28:	803d8f26 	beq	r16,zero,4068 <__alt_data_end+0xfffae938>
    4a2c:	00c00044 	movi	r3,1
    4a30:	d8c12b15 	stw	r3,1196(sp)
    4a34:	dc010405 	stb	r16,1040(sp)
    4a38:	d8012785 	stb	zero,1182(sp)
    4a3c:	003fb506 	br	4914 <__alt_data_end+0xfffaf1e4>
    4a40:	d8c12017 	ldw	r3,1152(sp)
    4a44:	003e3506 	br	431c <__alt_data_end+0xfffaebec>
    4a48:	10803fcc 	andi	r2,r2,255
    4a4c:	00c00044 	movi	r3,1
    4a50:	10fddc1e 	bne	r2,r3,41c4 <__alt_data_end+0xfffaea94>
    4a54:	a800021e 	bne	r21,zero,4a60 <___vfprintf_internal_r+0xe40>
    4a58:	00800244 	movi	r2,9
    4a5c:	14801e2e 	bgeu	r2,r18,4ad8 <___vfprintf_internal_r+0xeb8>
    4a60:	dc012b15 	stw	r16,1196(sp)
    4a64:	dc410e04 	addi	r17,sp,1080
    4a68:	9021883a 	mov	r16,r18
    4a6c:	da012c15 	stw	r8,1200(sp)
    4a70:	a825883a 	mov	r18,r21
    4a74:	482b883a 	mov	r21,r9
    4a78:	8009883a 	mov	r4,r16
    4a7c:	900b883a 	mov	r5,r18
    4a80:	01800284 	movi	r6,10
    4a84:	000f883a 	mov	r7,zero
    4a88:	000cd5c0 	call	cd5c <__umoddi3>
    4a8c:	10800c04 	addi	r2,r2,48
    4a90:	8c7fffc4 	addi	r17,r17,-1
    4a94:	8009883a 	mov	r4,r16
    4a98:	900b883a 	mov	r5,r18
    4a9c:	01800284 	movi	r6,10
